ARM GAS  C:\Users\paulp\AppData\Local\Temp\cc1vPtHZ.s 			page 1


   1              		.cpu cortex-m4
   2              		.eabi_attribute 27, 1
   3              		.eabi_attribute 28, 1
   4              		.eabi_attribute 20, 1
   5              		.eabi_attribute 21, 1
   6              		.eabi_attribute 23, 3
   7              		.eabi_attribute 24, 1
   8              		.eabi_attribute 25, 1
   9              		.eabi_attribute 26, 1
  10              		.eabi_attribute 30, 1
  11              		.eabi_attribute 34, 1
  12              		.eabi_attribute 18, 4
  13              		.file	"game.c"
  14              		.text
  15              	.Ltext0:
  16              		.cfi_sections	.debug_frame
  17              		.section	.text.START,"ax",%progbits
  18              		.align	1
  19              		.global	START
  20              		.arch armv7e-m
  21              		.syntax unified
  22              		.thumb
  23              		.thumb_func
  24              		.fpu fpv4-sp-d16
  26              	START:
  27              	.LFB743:
  28              		.file 1 "Core/Src/game.c"
   1:Core/Src/game.c **** #include "game.h"
   2:Core/Src/game.c **** 
   3:Core/Src/game.c **** #define SYNC_TIME     50000
   4:Core/Src/game.c **** #define INITIAL_RYTHM 150
   5:Core/Src/game.c **** #define SPEEDUP_RYTHM 30000
   6:Core/Src/game.c **** 
   7:Core/Src/game.c **** Board board;
   8:Core/Src/game.c **** Piece piece;
   9:Core/Src/game.c **** 
  10:Core/Src/game.c **** int movingTimer = 0;
  11:Core/Src/game.c **** int start       = 0;
  12:Core/Src/game.c **** int gameOver  = 0;
  13:Core/Src/game.c **** 
  14:Core/Src/game.c **** /* Buttons functions */
  15:Core/Src/game.c **** void UP(void){
  16:Core/Src/game.c ****     dropCurrentPiece(&board);
  17:Core/Src/game.c **** }
  18:Core/Src/game.c **** 
  19:Core/Src/game.c **** void DOWN(void){  
  20:Core/Src/game.c ****     moveCurrentPieceDown(&board);
  21:Core/Src/game.c ****     movingTimer = 0;
  22:Core/Src/game.c **** }
  23:Core/Src/game.c **** 
  24:Core/Src/game.c **** void RIGHT(void){
  25:Core/Src/game.c ****     moveCurrentPieceRight(&board);
  26:Core/Src/game.c **** }
  27:Core/Src/game.c **** 
  28:Core/Src/game.c **** void LEFT(void){
  29:Core/Src/game.c ****     moveCurrentPieceLeft(&board);
  30:Core/Src/game.c **** }
ARM GAS  C:\Users\paulp\AppData\Local\Temp\cc1vPtHZ.s 			page 2


  31:Core/Src/game.c **** 
  32:Core/Src/game.c **** void A(void){    
  33:Core/Src/game.c ****     rotateCurrentPieceRight(&board);
  34:Core/Src/game.c **** }
  35:Core/Src/game.c **** 
  36:Core/Src/game.c **** void B(void){
  37:Core/Src/game.c ****     rotateCurrentPieceLeft(&board);
  38:Core/Src/game.c **** }
  39:Core/Src/game.c **** 
  40:Core/Src/game.c **** void START(void){
  29              		.loc 1 40 17 view -0
  30              		.cfi_startproc
  31              		@ args = 0, pretend = 0, frame = 0
  32              		@ frame_needed = 0, uses_anonymous_args = 0
  33              		@ link register save eliminated.
  41:Core/Src/game.c ****     start = !start;
  34              		.loc 1 41 5 view .LVU1
  35              		.loc 1 41 13 is_stmt 0 view .LVU2
  36 0000 034A     		ldr	r2, .L2
  37 0002 1368     		ldr	r3, [r2]
  38 0004 B3FA83F3 		clz	r3, r3
  39 0008 5B09     		lsrs	r3, r3, #5
  40              		.loc 1 41 11 view .LVU3
  41 000a 1360     		str	r3, [r2]
  42:Core/Src/game.c **** }
  42              		.loc 1 42 1 view .LVU4
  43 000c 7047     		bx	lr
  44              	.L3:
  45 000e 00BF     		.align	2
  46              	.L2:
  47 0010 00000000 		.word	.LANCHOR0
  48              		.cfi_endproc
  49              	.LFE743:
  51              		.section	.text.UP,"ax",%progbits
  52              		.align	1
  53              		.global	UP
  54              		.syntax unified
  55              		.thumb
  56              		.thumb_func
  57              		.fpu fpv4-sp-d16
  59              	UP:
  60              	.LFB737:
  15:Core/Src/game.c ****     dropCurrentPiece(&board);
  61              		.loc 1 15 14 is_stmt 1 view -0
  62              		.cfi_startproc
  63              		@ args = 0, pretend = 0, frame = 0
  64              		@ frame_needed = 0, uses_anonymous_args = 0
  65 0000 08B5     		push	{r3, lr}
  66              	.LCFI0:
  67              		.cfi_def_cfa_offset 8
  68              		.cfi_offset 3, -8
  69              		.cfi_offset 14, -4
  16:Core/Src/game.c **** }
  70              		.loc 1 16 5 view .LVU6
  71 0002 0248     		ldr	r0, .L6
  72 0004 FFF7FEFF 		bl	dropCurrentPiece
  73              	.LVL0:
ARM GAS  C:\Users\paulp\AppData\Local\Temp\cc1vPtHZ.s 			page 3


  17:Core/Src/game.c **** 
  74              		.loc 1 17 1 is_stmt 0 view .LVU7
  75 0008 08BD     		pop	{r3, pc}
  76              	.L7:
  77 000a 00BF     		.align	2
  78              	.L6:
  79 000c 00000000 		.word	.LANCHOR1
  80              		.cfi_endproc
  81              	.LFE737:
  83              		.section	.text.DOWN,"ax",%progbits
  84              		.align	1
  85              		.global	DOWN
  86              		.syntax unified
  87              		.thumb
  88              		.thumb_func
  89              		.fpu fpv4-sp-d16
  91              	DOWN:
  92              	.LFB738:
  19:Core/Src/game.c ****     moveCurrentPieceDown(&board);
  93              		.loc 1 19 16 is_stmt 1 view -0
  94              		.cfi_startproc
  95              		@ args = 0, pretend = 0, frame = 0
  96              		@ frame_needed = 0, uses_anonymous_args = 0
  97 0000 08B5     		push	{r3, lr}
  98              	.LCFI1:
  99              		.cfi_def_cfa_offset 8
 100              		.cfi_offset 3, -8
 101              		.cfi_offset 14, -4
  20:Core/Src/game.c ****     movingTimer = 0;
 102              		.loc 1 20 5 view .LVU9
 103 0002 0348     		ldr	r0, .L10
 104 0004 FFF7FEFF 		bl	moveCurrentPieceDown
 105              	.LVL1:
  21:Core/Src/game.c **** }
 106              		.loc 1 21 5 view .LVU10
  21:Core/Src/game.c **** }
 107              		.loc 1 21 17 is_stmt 0 view .LVU11
 108 0008 024B     		ldr	r3, .L10+4
 109 000a 0022     		movs	r2, #0
 110 000c 1A60     		str	r2, [r3]
  22:Core/Src/game.c **** 
 111              		.loc 1 22 1 view .LVU12
 112 000e 08BD     		pop	{r3, pc}
 113              	.L11:
 114              		.align	2
 115              	.L10:
 116 0010 00000000 		.word	.LANCHOR1
 117 0014 00000000 		.word	.LANCHOR2
 118              		.cfi_endproc
 119              	.LFE738:
 121              		.section	.text.RIGHT,"ax",%progbits
 122              		.align	1
 123              		.global	RIGHT
 124              		.syntax unified
 125              		.thumb
 126              		.thumb_func
 127              		.fpu fpv4-sp-d16
ARM GAS  C:\Users\paulp\AppData\Local\Temp\cc1vPtHZ.s 			page 4


 129              	RIGHT:
 130              	.LFB739:
  24:Core/Src/game.c ****     moveCurrentPieceRight(&board);
 131              		.loc 1 24 17 is_stmt 1 view -0
 132              		.cfi_startproc
 133              		@ args = 0, pretend = 0, frame = 0
 134              		@ frame_needed = 0, uses_anonymous_args = 0
 135 0000 08B5     		push	{r3, lr}
 136              	.LCFI2:
 137              		.cfi_def_cfa_offset 8
 138              		.cfi_offset 3, -8
 139              		.cfi_offset 14, -4
  25:Core/Src/game.c **** }
 140              		.loc 1 25 5 view .LVU14
 141 0002 0248     		ldr	r0, .L14
 142 0004 FFF7FEFF 		bl	moveCurrentPieceRight
 143              	.LVL2:
  26:Core/Src/game.c **** 
 144              		.loc 1 26 1 is_stmt 0 view .LVU15
 145 0008 08BD     		pop	{r3, pc}
 146              	.L15:
 147 000a 00BF     		.align	2
 148              	.L14:
 149 000c 00000000 		.word	.LANCHOR1
 150              		.cfi_endproc
 151              	.LFE739:
 153              		.section	.text.LEFT,"ax",%progbits
 154              		.align	1
 155              		.global	LEFT
 156              		.syntax unified
 157              		.thumb
 158              		.thumb_func
 159              		.fpu fpv4-sp-d16
 161              	LEFT:
 162              	.LFB740:
  28:Core/Src/game.c ****     moveCurrentPieceLeft(&board);
 163              		.loc 1 28 16 is_stmt 1 view -0
 164              		.cfi_startproc
 165              		@ args = 0, pretend = 0, frame = 0
 166              		@ frame_needed = 0, uses_anonymous_args = 0
 167 0000 08B5     		push	{r3, lr}
 168              	.LCFI3:
 169              		.cfi_def_cfa_offset 8
 170              		.cfi_offset 3, -8
 171              		.cfi_offset 14, -4
  29:Core/Src/game.c **** }
 172              		.loc 1 29 5 view .LVU17
 173 0002 0248     		ldr	r0, .L18
 174 0004 FFF7FEFF 		bl	moveCurrentPieceLeft
 175              	.LVL3:
  30:Core/Src/game.c **** 
 176              		.loc 1 30 1 is_stmt 0 view .LVU18
 177 0008 08BD     		pop	{r3, pc}
 178              	.L19:
 179 000a 00BF     		.align	2
 180              	.L18:
 181 000c 00000000 		.word	.LANCHOR1
ARM GAS  C:\Users\paulp\AppData\Local\Temp\cc1vPtHZ.s 			page 5


 182              		.cfi_endproc
 183              	.LFE740:
 185              		.section	.text.A,"ax",%progbits
 186              		.align	1
 187              		.global	A
 188              		.syntax unified
 189              		.thumb
 190              		.thumb_func
 191              		.fpu fpv4-sp-d16
 193              	A:
 194              	.LFB741:
  32:Core/Src/game.c ****     rotateCurrentPieceRight(&board);
 195              		.loc 1 32 13 is_stmt 1 view -0
 196              		.cfi_startproc
 197              		@ args = 0, pretend = 0, frame = 0
 198              		@ frame_needed = 0, uses_anonymous_args = 0
 199 0000 08B5     		push	{r3, lr}
 200              	.LCFI4:
 201              		.cfi_def_cfa_offset 8
 202              		.cfi_offset 3, -8
 203              		.cfi_offset 14, -4
  33:Core/Src/game.c **** }
 204              		.loc 1 33 5 view .LVU20
 205 0002 0248     		ldr	r0, .L22
 206 0004 FFF7FEFF 		bl	rotateCurrentPieceRight
 207              	.LVL4:
  34:Core/Src/game.c **** 
 208              		.loc 1 34 1 is_stmt 0 view .LVU21
 209 0008 08BD     		pop	{r3, pc}
 210              	.L23:
 211 000a 00BF     		.align	2
 212              	.L22:
 213 000c 00000000 		.word	.LANCHOR1
 214              		.cfi_endproc
 215              	.LFE741:
 217              		.section	.text.B,"ax",%progbits
 218              		.align	1
 219              		.global	B
 220              		.syntax unified
 221              		.thumb
 222              		.thumb_func
 223              		.fpu fpv4-sp-d16
 225              	B:
 226              	.LFB742:
  36:Core/Src/game.c ****     rotateCurrentPieceLeft(&board);
 227              		.loc 1 36 13 is_stmt 1 view -0
 228              		.cfi_startproc
 229              		@ args = 0, pretend = 0, frame = 0
 230              		@ frame_needed = 0, uses_anonymous_args = 0
 231 0000 08B5     		push	{r3, lr}
 232              	.LCFI5:
 233              		.cfi_def_cfa_offset 8
 234              		.cfi_offset 3, -8
 235              		.cfi_offset 14, -4
  37:Core/Src/game.c **** }
 236              		.loc 1 37 5 view .LVU23
 237 0002 0248     		ldr	r0, .L26
ARM GAS  C:\Users\paulp\AppData\Local\Temp\cc1vPtHZ.s 			page 6


 238 0004 FFF7FEFF 		bl	rotateCurrentPieceLeft
 239              	.LVL5:
  38:Core/Src/game.c **** 
 240              		.loc 1 38 1 is_stmt 0 view .LVU24
 241 0008 08BD     		pop	{r3, pc}
 242              	.L27:
 243 000a 00BF     		.align	2
 244              	.L26:
 245 000c 00000000 		.word	.LANCHOR1
 246              		.cfi_endproc
 247              	.LFE742:
 249              		.section	.rodata.displayScore.str1.4,"aMS",%progbits,1
 250              		.align	2
 251              	.LC0:
 252 0000 256400   		.ascii	"%d\000"
 253              		.section	.text.displayScore,"ax",%progbits
 254              		.align	1
 255              		.global	displayScore
 256              		.syntax unified
 257              		.thumb
 258              		.thumb_func
 259              		.fpu fpv4-sp-d16
 261              	displayScore:
 262              	.LVL6:
 263              	.LFB744:
  43:Core/Src/game.c **** 
  44:Core/Src/game.c **** void displayScore(int score){
 264              		.loc 1 44 29 is_stmt 1 view -0
 265              		.cfi_startproc
 266              		@ args = 0, pretend = 0, frame = 8
 267              		@ frame_needed = 0, uses_anonymous_args = 0
 268              		.loc 1 44 29 is_stmt 0 view .LVU26
 269 0000 00B5     		push	{lr}
 270              	.LCFI6:
 271              		.cfi_def_cfa_offset 4
 272              		.cfi_offset 14, -4
 273 0002 85B0     		sub	sp, sp, #20
 274              	.LCFI7:
 275              		.cfi_def_cfa_offset 24
 276 0004 0246     		mov	r2, r0
  45:Core/Src/game.c ****     char charScore[6]; 
 277              		.loc 1 45 5 is_stmt 1 view .LVU27
  46:Core/Src/game.c ****     sprintf(charScore, "%d", score);
 278              		.loc 1 46 5 view .LVU28
 279 0006 0949     		ldr	r1, .L30
 280 0008 02A8     		add	r0, sp, #8
 281              	.LVL7:
 282              		.loc 1 46 5 is_stmt 0 view .LVU29
 283 000a FFF7FEFF 		bl	sprintf
 284              	.LVL8:
  47:Core/Src/game.c ****     DrawText(charScore, 120, 150, WHITE, 2, BLACK);
 285              		.loc 1 47 5 is_stmt 1 view .LVU30
 286 000e 0023     		movs	r3, #0
 287 0010 0193     		str	r3, [sp, #4]
 288 0012 0223     		movs	r3, #2
 289 0014 0093     		str	r3, [sp]
 290 0016 4FF6FF73 		movw	r3, #65535
ARM GAS  C:\Users\paulp\AppData\Local\Temp\cc1vPtHZ.s 			page 7


 291 001a 9622     		movs	r2, #150
 292 001c 7821     		movs	r1, #120
 293 001e 02A8     		add	r0, sp, #8
 294 0020 FFF7FEFF 		bl	DrawText
 295              	.LVL9:
  48:Core/Src/game.c **** }
 296              		.loc 1 48 1 is_stmt 0 view .LVU31
 297 0024 05B0     		add	sp, sp, #20
 298              	.LCFI8:
 299              		.cfi_def_cfa_offset 4
 300              		@ sp needed
 301 0026 5DF804FB 		ldr	pc, [sp], #4
 302              	.L31:
 303 002a 00BF     		.align	2
 304              	.L30:
 305 002c 00000000 		.word	.LC0
 306              		.cfi_endproc
 307              	.LFE744:
 309              		.section	.text.setButtonsInGame,"ax",%progbits
 310              		.align	1
 311              		.global	setButtonsInGame
 312              		.syntax unified
 313              		.thumb
 314              		.thumb_func
 315              		.fpu fpv4-sp-d16
 317              	setButtonsInGame:
 318              	.LFB745:
  49:Core/Src/game.c **** 
  50:Core/Src/game.c **** void setButtonsInGame(){
 319              		.loc 1 50 24 is_stmt 1 view -0
 320              		.cfi_startproc
 321              		@ args = 0, pretend = 0, frame = 0
 322              		@ frame_needed = 0, uses_anonymous_args = 0
 323 0000 08B5     		push	{r3, lr}
 324              	.LCFI9:
 325              		.cfi_def_cfa_offset 8
 326              		.cfi_offset 3, -8
 327              		.cfi_offset 14, -4
  51:Core/Src/game.c ****     setAfunction(&A);
 328              		.loc 1 51 5 view .LVU33
 329 0002 0B48     		ldr	r0, .L34
 330 0004 FFF7FEFF 		bl	setAfunction
 331              	.LVL10:
  52:Core/Src/game.c ****     setBfunction(&B);
 332              		.loc 1 52 5 view .LVU34
 333 0008 0A48     		ldr	r0, .L34+4
 334 000a FFF7FEFF 		bl	setBfunction
 335              	.LVL11:
  53:Core/Src/game.c ****     setUPfunction(&UP);
 336              		.loc 1 53 5 view .LVU35
 337 000e 0A48     		ldr	r0, .L34+8
 338 0010 FFF7FEFF 		bl	setUPfunction
 339              	.LVL12:
  54:Core/Src/game.c ****     setDOWNfunction(&DOWN);
 340              		.loc 1 54 5 view .LVU36
 341 0014 0948     		ldr	r0, .L34+12
 342 0016 FFF7FEFF 		bl	setDOWNfunction
ARM GAS  C:\Users\paulp\AppData\Local\Temp\cc1vPtHZ.s 			page 8


 343              	.LVL13:
  55:Core/Src/game.c ****     setRIGHTfunction(&RIGHT);
 344              		.loc 1 55 5 view .LVU37
 345 001a 0948     		ldr	r0, .L34+16
 346 001c FFF7FEFF 		bl	setRIGHTfunction
 347              	.LVL14:
  56:Core/Src/game.c ****     setLEFTfunction(&LEFT);
 348              		.loc 1 56 5 view .LVU38
 349 0020 0848     		ldr	r0, .L34+20
 350 0022 FFF7FEFF 		bl	setLEFTfunction
 351              	.LVL15:
  57:Core/Src/game.c ****     setSTARTfunction(&START);
 352              		.loc 1 57 5 view .LVU39
 353 0026 0848     		ldr	r0, .L34+24
 354 0028 FFF7FEFF 		bl	setSTARTfunction
 355              	.LVL16:
  58:Core/Src/game.c **** }
 356              		.loc 1 58 1 is_stmt 0 view .LVU40
 357 002c 08BD     		pop	{r3, pc}
 358              	.L35:
 359 002e 00BF     		.align	2
 360              	.L34:
 361 0030 00000000 		.word	A
 362 0034 00000000 		.word	B
 363 0038 00000000 		.word	UP
 364 003c 00000000 		.word	DOWN
 365 0040 00000000 		.word	RIGHT
 366 0044 00000000 		.word	LEFT
 367 0048 00000000 		.word	START
 368              		.cfi_endproc
 369              	.LFE745:
 371              		.section	.text.setButtonsOutGame,"ax",%progbits
 372              		.align	1
 373              		.global	setButtonsOutGame
 374              		.syntax unified
 375              		.thumb
 376              		.thumb_func
 377              		.fpu fpv4-sp-d16
 379              	setButtonsOutGame:
 380              	.LFB746:
  59:Core/Src/game.c **** 
  60:Core/Src/game.c **** void setButtonsOutGame(){
 381              		.loc 1 60 25 is_stmt 1 view -0
 382              		.cfi_startproc
 383              		@ args = 0, pretend = 0, frame = 0
 384              		@ frame_needed = 0, uses_anonymous_args = 0
 385 0000 10B5     		push	{r4, lr}
 386              	.LCFI10:
 387              		.cfi_def_cfa_offset 8
 388              		.cfi_offset 4, -8
 389              		.cfi_offset 14, -4
  61:Core/Src/game.c ****     setAfunction(&emptyFunc);
 390              		.loc 1 61 5 view .LVU42
 391 0002 0B4C     		ldr	r4, .L38
 392 0004 2046     		mov	r0, r4
 393 0006 FFF7FEFF 		bl	setAfunction
 394              	.LVL17:
ARM GAS  C:\Users\paulp\AppData\Local\Temp\cc1vPtHZ.s 			page 9


  62:Core/Src/game.c ****     setBfunction(&emptyFunc);
 395              		.loc 1 62 5 view .LVU43
 396 000a 2046     		mov	r0, r4
 397 000c FFF7FEFF 		bl	setBfunction
 398              	.LVL18:
  63:Core/Src/game.c ****     setUPfunction(&emptyFunc);
 399              		.loc 1 63 5 view .LVU44
 400 0010 2046     		mov	r0, r4
 401 0012 FFF7FEFF 		bl	setUPfunction
 402              	.LVL19:
  64:Core/Src/game.c ****     setDOWNfunction(&emptyFunc);
 403              		.loc 1 64 5 view .LVU45
 404 0016 2046     		mov	r0, r4
 405 0018 FFF7FEFF 		bl	setDOWNfunction
 406              	.LVL20:
  65:Core/Src/game.c ****     setRIGHTfunction(&emptyFunc);
 407              		.loc 1 65 5 view .LVU46
 408 001c 2046     		mov	r0, r4
 409 001e FFF7FEFF 		bl	setRIGHTfunction
 410              	.LVL21:
  66:Core/Src/game.c ****     setLEFTfunction(&emptyFunc);
 411              		.loc 1 66 5 view .LVU47
 412 0022 2046     		mov	r0, r4
 413 0024 FFF7FEFF 		bl	setLEFTfunction
 414              	.LVL22:
  67:Core/Src/game.c ****     setSTARTfunction(&START);
 415              		.loc 1 67 5 view .LVU48
 416 0028 0248     		ldr	r0, .L38+4
 417 002a FFF7FEFF 		bl	setSTARTfunction
 418              	.LVL23:
  68:Core/Src/game.c **** }
 419              		.loc 1 68 1 is_stmt 0 view .LVU49
 420 002e 10BD     		pop	{r4, pc}
 421              	.L39:
 422              		.align	2
 423              	.L38:
 424 0030 00000000 		.word	emptyFunc
 425 0034 00000000 		.word	START
 426              		.cfi_endproc
 427              	.LFE746:
 429              		.section	.rodata.game.str1.4,"aMS",%progbits,1
 430              		.align	2
 431              	.LC1:
 432 0000 53636F72 		.ascii	"Score: \000"
 432      653A2000 
 433              		.global	__aeabi_i2d
 434              		.global	__aeabi_dmul
 435              		.global	__aeabi_dadd
 436              		.global	__aeabi_d2iz
 437              		.align	2
 438              	.LC2:
 439 0008 54455452 		.ascii	"TETRIS!\000"
 439      49532100 
 440              		.align	2
 441              	.LC3:
 442 0010 4C494E45 		.ascii	"LINE!\000"
 442      2100
ARM GAS  C:\Users\paulp\AppData\Local\Temp\cc1vPtHZ.s 			page 10


 443 0016 0000     		.align	2
 444              	.LC4:
 445 0018 47414D45 		.ascii	"GAME OVER\000"
 445      204F5645 
 445      5200
 446 0022 0000     		.align	2
 447              	.LC5:
 448 0024 594F5552 		.ascii	"YOUR SCORE : \000"
 448      2053434F 
 448      5245203A 
 448      2000
 449              		.section	.text.game,"ax",%progbits
 450              		.align	1
 451              		.global	game
 452              		.syntax unified
 453              		.thumb
 454              		.thumb_func
 455              		.fpu fpv4-sp-d16
 457              	game:
 458              	.LFB747:
  69:Core/Src/game.c **** 
  70:Core/Src/game.c **** int game(){ 
 459              		.loc 1 70 11 is_stmt 1 view -0
 460              		.cfi_startproc
 461              		@ args = 0, pretend = 0, frame = 24
 462              		@ frame_needed = 0, uses_anonymous_args = 0
 463 0000 2DE9F04F 		push	{r4, r5, r6, r7, r8, r9, r10, fp, lr}
 464              	.LCFI11:
 465              		.cfi_def_cfa_offset 36
 466              		.cfi_offset 4, -36
 467              		.cfi_offset 5, -32
 468              		.cfi_offset 6, -28
 469              		.cfi_offset 7, -24
 470              		.cfi_offset 8, -20
 471              		.cfi_offset 9, -16
 472              		.cfi_offset 10, -12
 473              		.cfi_offset 11, -8
 474              		.cfi_offset 14, -4
 475 0004 89B0     		sub	sp, sp, #36
 476              	.LCFI12:
 477              		.cfi_def_cfa_offset 72
  71:Core/Src/game.c ****     setButtonsInGame();   
 478              		.loc 1 71 5 view .LVU51
 479 0006 FFF7FEFF 		bl	setButtonsInGame
 480              	.LVL24:
  72:Core/Src/game.c ****     /* Seeding RNG */
  73:Core/Src/game.c ****     srand(LL_TIM_GetCounter(TIM4));
 481              		.loc 1 73 5 view .LVU52
 482              	.LBB11:
 483              	.LBI11:
 484              		.file 2 "Drivers/STM32F4xx_HAL_Driver/Inc/stm32f4xx_ll_tim.h"
   1:Drivers/STM32F4xx_HAL_Driver/Inc/stm32f4xx_ll_tim.h **** /**
   2:Drivers/STM32F4xx_HAL_Driver/Inc/stm32f4xx_ll_tim.h ****   ******************************************************************************
   3:Drivers/STM32F4xx_HAL_Driver/Inc/stm32f4xx_ll_tim.h ****   * @file    stm32f4xx_ll_tim.h
   4:Drivers/STM32F4xx_HAL_Driver/Inc/stm32f4xx_ll_tim.h ****   * @author  MCD Application Team
   5:Drivers/STM32F4xx_HAL_Driver/Inc/stm32f4xx_ll_tim.h ****   * @brief   Header file of TIM LL module.
   6:Drivers/STM32F4xx_HAL_Driver/Inc/stm32f4xx_ll_tim.h ****   ******************************************************************************
ARM GAS  C:\Users\paulp\AppData\Local\Temp\cc1vPtHZ.s 			page 11


   7:Drivers/STM32F4xx_HAL_Driver/Inc/stm32f4xx_ll_tim.h ****   * @attention
   8:Drivers/STM32F4xx_HAL_Driver/Inc/stm32f4xx_ll_tim.h ****   *
   9:Drivers/STM32F4xx_HAL_Driver/Inc/stm32f4xx_ll_tim.h ****   * <h2><center>&copy; Copyright (c) 2016 STMicroelectronics.
  10:Drivers/STM32F4xx_HAL_Driver/Inc/stm32f4xx_ll_tim.h ****   * All rights reserved.</center></h2>
  11:Drivers/STM32F4xx_HAL_Driver/Inc/stm32f4xx_ll_tim.h ****   *
  12:Drivers/STM32F4xx_HAL_Driver/Inc/stm32f4xx_ll_tim.h ****   * This software component is licensed by ST under BSD 3-Clause license,
  13:Drivers/STM32F4xx_HAL_Driver/Inc/stm32f4xx_ll_tim.h ****   * the "License"; You may not use this file except in compliance with the
  14:Drivers/STM32F4xx_HAL_Driver/Inc/stm32f4xx_ll_tim.h ****   * License. You may obtain a copy of the License at:
  15:Drivers/STM32F4xx_HAL_Driver/Inc/stm32f4xx_ll_tim.h ****   *                        opensource.org/licenses/BSD-3-Clause
  16:Drivers/STM32F4xx_HAL_Driver/Inc/stm32f4xx_ll_tim.h ****   *
  17:Drivers/STM32F4xx_HAL_Driver/Inc/stm32f4xx_ll_tim.h ****   ******************************************************************************
  18:Drivers/STM32F4xx_HAL_Driver/Inc/stm32f4xx_ll_tim.h ****   */
  19:Drivers/STM32F4xx_HAL_Driver/Inc/stm32f4xx_ll_tim.h **** 
  20:Drivers/STM32F4xx_HAL_Driver/Inc/stm32f4xx_ll_tim.h **** /* Define to prevent recursive inclusion -------------------------------------*/
  21:Drivers/STM32F4xx_HAL_Driver/Inc/stm32f4xx_ll_tim.h **** #ifndef __STM32F4xx_LL_TIM_H
  22:Drivers/STM32F4xx_HAL_Driver/Inc/stm32f4xx_ll_tim.h **** #define __STM32F4xx_LL_TIM_H
  23:Drivers/STM32F4xx_HAL_Driver/Inc/stm32f4xx_ll_tim.h **** 
  24:Drivers/STM32F4xx_HAL_Driver/Inc/stm32f4xx_ll_tim.h **** #ifdef __cplusplus
  25:Drivers/STM32F4xx_HAL_Driver/Inc/stm32f4xx_ll_tim.h **** extern "C" {
  26:Drivers/STM32F4xx_HAL_Driver/Inc/stm32f4xx_ll_tim.h **** #endif
  27:Drivers/STM32F4xx_HAL_Driver/Inc/stm32f4xx_ll_tim.h **** 
  28:Drivers/STM32F4xx_HAL_Driver/Inc/stm32f4xx_ll_tim.h **** /* Includes ------------------------------------------------------------------*/
  29:Drivers/STM32F4xx_HAL_Driver/Inc/stm32f4xx_ll_tim.h **** #include "stm32f4xx.h"
  30:Drivers/STM32F4xx_HAL_Driver/Inc/stm32f4xx_ll_tim.h **** 
  31:Drivers/STM32F4xx_HAL_Driver/Inc/stm32f4xx_ll_tim.h **** /** @addtogroup STM32F4xx_LL_Driver
  32:Drivers/STM32F4xx_HAL_Driver/Inc/stm32f4xx_ll_tim.h ****   * @{
  33:Drivers/STM32F4xx_HAL_Driver/Inc/stm32f4xx_ll_tim.h ****   */
  34:Drivers/STM32F4xx_HAL_Driver/Inc/stm32f4xx_ll_tim.h **** 
  35:Drivers/STM32F4xx_HAL_Driver/Inc/stm32f4xx_ll_tim.h **** #if defined (TIM1) || defined (TIM2) || defined (TIM3) || defined (TIM4) || defined (TIM5) || defin
  36:Drivers/STM32F4xx_HAL_Driver/Inc/stm32f4xx_ll_tim.h **** 
  37:Drivers/STM32F4xx_HAL_Driver/Inc/stm32f4xx_ll_tim.h **** /** @defgroup TIM_LL TIM
  38:Drivers/STM32F4xx_HAL_Driver/Inc/stm32f4xx_ll_tim.h ****   * @{
  39:Drivers/STM32F4xx_HAL_Driver/Inc/stm32f4xx_ll_tim.h ****   */
  40:Drivers/STM32F4xx_HAL_Driver/Inc/stm32f4xx_ll_tim.h **** 
  41:Drivers/STM32F4xx_HAL_Driver/Inc/stm32f4xx_ll_tim.h **** /* Private types -------------------------------------------------------------*/
  42:Drivers/STM32F4xx_HAL_Driver/Inc/stm32f4xx_ll_tim.h **** /* Private variables ---------------------------------------------------------*/
  43:Drivers/STM32F4xx_HAL_Driver/Inc/stm32f4xx_ll_tim.h **** /** @defgroup TIM_LL_Private_Variables TIM Private Variables
  44:Drivers/STM32F4xx_HAL_Driver/Inc/stm32f4xx_ll_tim.h ****   * @{
  45:Drivers/STM32F4xx_HAL_Driver/Inc/stm32f4xx_ll_tim.h ****   */
  46:Drivers/STM32F4xx_HAL_Driver/Inc/stm32f4xx_ll_tim.h **** static const uint8_t OFFSET_TAB_CCMRx[] =
  47:Drivers/STM32F4xx_HAL_Driver/Inc/stm32f4xx_ll_tim.h **** {
  48:Drivers/STM32F4xx_HAL_Driver/Inc/stm32f4xx_ll_tim.h ****   0x00U,   /* 0: TIMx_CH1  */
  49:Drivers/STM32F4xx_HAL_Driver/Inc/stm32f4xx_ll_tim.h ****   0x00U,   /* 1: TIMx_CH1N */
  50:Drivers/STM32F4xx_HAL_Driver/Inc/stm32f4xx_ll_tim.h ****   0x00U,   /* 2: TIMx_CH2  */
  51:Drivers/STM32F4xx_HAL_Driver/Inc/stm32f4xx_ll_tim.h ****   0x00U,   /* 3: TIMx_CH2N */
  52:Drivers/STM32F4xx_HAL_Driver/Inc/stm32f4xx_ll_tim.h ****   0x04U,   /* 4: TIMx_CH3  */
  53:Drivers/STM32F4xx_HAL_Driver/Inc/stm32f4xx_ll_tim.h ****   0x04U,   /* 5: TIMx_CH3N */
  54:Drivers/STM32F4xx_HAL_Driver/Inc/stm32f4xx_ll_tim.h ****   0x04U    /* 6: TIMx_CH4  */
  55:Drivers/STM32F4xx_HAL_Driver/Inc/stm32f4xx_ll_tim.h **** };
  56:Drivers/STM32F4xx_HAL_Driver/Inc/stm32f4xx_ll_tim.h **** 
  57:Drivers/STM32F4xx_HAL_Driver/Inc/stm32f4xx_ll_tim.h **** static const uint8_t SHIFT_TAB_OCxx[] =
  58:Drivers/STM32F4xx_HAL_Driver/Inc/stm32f4xx_ll_tim.h **** {
  59:Drivers/STM32F4xx_HAL_Driver/Inc/stm32f4xx_ll_tim.h ****   0U,            /* 0: OC1M, OC1FE, OC1PE */
  60:Drivers/STM32F4xx_HAL_Driver/Inc/stm32f4xx_ll_tim.h ****   0U,            /* 1: - NA */
  61:Drivers/STM32F4xx_HAL_Driver/Inc/stm32f4xx_ll_tim.h ****   8U,            /* 2: OC2M, OC2FE, OC2PE */
  62:Drivers/STM32F4xx_HAL_Driver/Inc/stm32f4xx_ll_tim.h ****   0U,            /* 3: - NA */
  63:Drivers/STM32F4xx_HAL_Driver/Inc/stm32f4xx_ll_tim.h ****   0U,            /* 4: OC3M, OC3FE, OC3PE */
ARM GAS  C:\Users\paulp\AppData\Local\Temp\cc1vPtHZ.s 			page 12


  64:Drivers/STM32F4xx_HAL_Driver/Inc/stm32f4xx_ll_tim.h ****   0U,            /* 5: - NA */
  65:Drivers/STM32F4xx_HAL_Driver/Inc/stm32f4xx_ll_tim.h ****   8U             /* 6: OC4M, OC4FE, OC4PE */
  66:Drivers/STM32F4xx_HAL_Driver/Inc/stm32f4xx_ll_tim.h **** };
  67:Drivers/STM32F4xx_HAL_Driver/Inc/stm32f4xx_ll_tim.h **** 
  68:Drivers/STM32F4xx_HAL_Driver/Inc/stm32f4xx_ll_tim.h **** static const uint8_t SHIFT_TAB_ICxx[] =
  69:Drivers/STM32F4xx_HAL_Driver/Inc/stm32f4xx_ll_tim.h **** {
  70:Drivers/STM32F4xx_HAL_Driver/Inc/stm32f4xx_ll_tim.h ****   0U,            /* 0: CC1S, IC1PSC, IC1F */
  71:Drivers/STM32F4xx_HAL_Driver/Inc/stm32f4xx_ll_tim.h ****   0U,            /* 1: - NA */
  72:Drivers/STM32F4xx_HAL_Driver/Inc/stm32f4xx_ll_tim.h ****   8U,            /* 2: CC2S, IC2PSC, IC2F */
  73:Drivers/STM32F4xx_HAL_Driver/Inc/stm32f4xx_ll_tim.h ****   0U,            /* 3: - NA */
  74:Drivers/STM32F4xx_HAL_Driver/Inc/stm32f4xx_ll_tim.h ****   0U,            /* 4: CC3S, IC3PSC, IC3F */
  75:Drivers/STM32F4xx_HAL_Driver/Inc/stm32f4xx_ll_tim.h ****   0U,            /* 5: - NA */
  76:Drivers/STM32F4xx_HAL_Driver/Inc/stm32f4xx_ll_tim.h ****   8U             /* 6: CC4S, IC4PSC, IC4F */
  77:Drivers/STM32F4xx_HAL_Driver/Inc/stm32f4xx_ll_tim.h **** };
  78:Drivers/STM32F4xx_HAL_Driver/Inc/stm32f4xx_ll_tim.h **** 
  79:Drivers/STM32F4xx_HAL_Driver/Inc/stm32f4xx_ll_tim.h **** static const uint8_t SHIFT_TAB_CCxP[] =
  80:Drivers/STM32F4xx_HAL_Driver/Inc/stm32f4xx_ll_tim.h **** {
  81:Drivers/STM32F4xx_HAL_Driver/Inc/stm32f4xx_ll_tim.h ****   0U,            /* 0: CC1P */
  82:Drivers/STM32F4xx_HAL_Driver/Inc/stm32f4xx_ll_tim.h ****   2U,            /* 1: CC1NP */
  83:Drivers/STM32F4xx_HAL_Driver/Inc/stm32f4xx_ll_tim.h ****   4U,            /* 2: CC2P */
  84:Drivers/STM32F4xx_HAL_Driver/Inc/stm32f4xx_ll_tim.h ****   6U,            /* 3: CC2NP */
  85:Drivers/STM32F4xx_HAL_Driver/Inc/stm32f4xx_ll_tim.h ****   8U,            /* 4: CC3P */
  86:Drivers/STM32F4xx_HAL_Driver/Inc/stm32f4xx_ll_tim.h ****   10U,           /* 5: CC3NP */
  87:Drivers/STM32F4xx_HAL_Driver/Inc/stm32f4xx_ll_tim.h ****   12U            /* 6: CC4P */
  88:Drivers/STM32F4xx_HAL_Driver/Inc/stm32f4xx_ll_tim.h **** };
  89:Drivers/STM32F4xx_HAL_Driver/Inc/stm32f4xx_ll_tim.h **** 
  90:Drivers/STM32F4xx_HAL_Driver/Inc/stm32f4xx_ll_tim.h **** static const uint8_t SHIFT_TAB_OISx[] =
  91:Drivers/STM32F4xx_HAL_Driver/Inc/stm32f4xx_ll_tim.h **** {
  92:Drivers/STM32F4xx_HAL_Driver/Inc/stm32f4xx_ll_tim.h ****   0U,            /* 0: OIS1 */
  93:Drivers/STM32F4xx_HAL_Driver/Inc/stm32f4xx_ll_tim.h ****   1U,            /* 1: OIS1N */
  94:Drivers/STM32F4xx_HAL_Driver/Inc/stm32f4xx_ll_tim.h ****   2U,            /* 2: OIS2 */
  95:Drivers/STM32F4xx_HAL_Driver/Inc/stm32f4xx_ll_tim.h ****   3U,            /* 3: OIS2N */
  96:Drivers/STM32F4xx_HAL_Driver/Inc/stm32f4xx_ll_tim.h ****   4U,            /* 4: OIS3 */
  97:Drivers/STM32F4xx_HAL_Driver/Inc/stm32f4xx_ll_tim.h ****   5U,            /* 5: OIS3N */
  98:Drivers/STM32F4xx_HAL_Driver/Inc/stm32f4xx_ll_tim.h ****   6U             /* 6: OIS4 */
  99:Drivers/STM32F4xx_HAL_Driver/Inc/stm32f4xx_ll_tim.h **** };
 100:Drivers/STM32F4xx_HAL_Driver/Inc/stm32f4xx_ll_tim.h **** /**
 101:Drivers/STM32F4xx_HAL_Driver/Inc/stm32f4xx_ll_tim.h ****   * @}
 102:Drivers/STM32F4xx_HAL_Driver/Inc/stm32f4xx_ll_tim.h ****   */
 103:Drivers/STM32F4xx_HAL_Driver/Inc/stm32f4xx_ll_tim.h **** 
 104:Drivers/STM32F4xx_HAL_Driver/Inc/stm32f4xx_ll_tim.h **** /* Private constants ---------------------------------------------------------*/
 105:Drivers/STM32F4xx_HAL_Driver/Inc/stm32f4xx_ll_tim.h **** /** @defgroup TIM_LL_Private_Constants TIM Private Constants
 106:Drivers/STM32F4xx_HAL_Driver/Inc/stm32f4xx_ll_tim.h ****   * @{
 107:Drivers/STM32F4xx_HAL_Driver/Inc/stm32f4xx_ll_tim.h ****   */
 108:Drivers/STM32F4xx_HAL_Driver/Inc/stm32f4xx_ll_tim.h **** 
 109:Drivers/STM32F4xx_HAL_Driver/Inc/stm32f4xx_ll_tim.h **** 
 110:Drivers/STM32F4xx_HAL_Driver/Inc/stm32f4xx_ll_tim.h **** /* Remap mask definitions */
 111:Drivers/STM32F4xx_HAL_Driver/Inc/stm32f4xx_ll_tim.h **** #define TIMx_OR_RMP_SHIFT  16U
 112:Drivers/STM32F4xx_HAL_Driver/Inc/stm32f4xx_ll_tim.h **** #define TIMx_OR_RMP_MASK   0x0000FFFFU
 113:Drivers/STM32F4xx_HAL_Driver/Inc/stm32f4xx_ll_tim.h **** #define TIM2_OR_RMP_MASK   (TIM_OR_ITR1_RMP << TIMx_OR_RMP_SHIFT)
 114:Drivers/STM32F4xx_HAL_Driver/Inc/stm32f4xx_ll_tim.h **** #define TIM5_OR_RMP_MASK   (TIM_OR_TI4_RMP << TIMx_OR_RMP_SHIFT)
 115:Drivers/STM32F4xx_HAL_Driver/Inc/stm32f4xx_ll_tim.h **** #define TIM11_OR_RMP_MASK  (TIM_OR_TI1_RMP << TIMx_OR_RMP_SHIFT)
 116:Drivers/STM32F4xx_HAL_Driver/Inc/stm32f4xx_ll_tim.h **** 
 117:Drivers/STM32F4xx_HAL_Driver/Inc/stm32f4xx_ll_tim.h **** /* Mask used to set the TDG[x:0] of the DTG bits of the TIMx_BDTR register */
 118:Drivers/STM32F4xx_HAL_Driver/Inc/stm32f4xx_ll_tim.h **** #define DT_DELAY_1 ((uint8_t)0x7F)
 119:Drivers/STM32F4xx_HAL_Driver/Inc/stm32f4xx_ll_tim.h **** #define DT_DELAY_2 ((uint8_t)0x3F)
 120:Drivers/STM32F4xx_HAL_Driver/Inc/stm32f4xx_ll_tim.h **** #define DT_DELAY_3 ((uint8_t)0x1F)
ARM GAS  C:\Users\paulp\AppData\Local\Temp\cc1vPtHZ.s 			page 13


 121:Drivers/STM32F4xx_HAL_Driver/Inc/stm32f4xx_ll_tim.h **** #define DT_DELAY_4 ((uint8_t)0x1F)
 122:Drivers/STM32F4xx_HAL_Driver/Inc/stm32f4xx_ll_tim.h **** 
 123:Drivers/STM32F4xx_HAL_Driver/Inc/stm32f4xx_ll_tim.h **** /* Mask used to set the DTG[7:5] bits of the DTG bits of the TIMx_BDTR register */
 124:Drivers/STM32F4xx_HAL_Driver/Inc/stm32f4xx_ll_tim.h **** #define DT_RANGE_1 ((uint8_t)0x00)
 125:Drivers/STM32F4xx_HAL_Driver/Inc/stm32f4xx_ll_tim.h **** #define DT_RANGE_2 ((uint8_t)0x80)
 126:Drivers/STM32F4xx_HAL_Driver/Inc/stm32f4xx_ll_tim.h **** #define DT_RANGE_3 ((uint8_t)0xC0)
 127:Drivers/STM32F4xx_HAL_Driver/Inc/stm32f4xx_ll_tim.h **** #define DT_RANGE_4 ((uint8_t)0xE0)
 128:Drivers/STM32F4xx_HAL_Driver/Inc/stm32f4xx_ll_tim.h **** 
 129:Drivers/STM32F4xx_HAL_Driver/Inc/stm32f4xx_ll_tim.h **** 
 130:Drivers/STM32F4xx_HAL_Driver/Inc/stm32f4xx_ll_tim.h **** /**
 131:Drivers/STM32F4xx_HAL_Driver/Inc/stm32f4xx_ll_tim.h ****   * @}
 132:Drivers/STM32F4xx_HAL_Driver/Inc/stm32f4xx_ll_tim.h ****   */
 133:Drivers/STM32F4xx_HAL_Driver/Inc/stm32f4xx_ll_tim.h **** 
 134:Drivers/STM32F4xx_HAL_Driver/Inc/stm32f4xx_ll_tim.h **** /* Private macros ------------------------------------------------------------*/
 135:Drivers/STM32F4xx_HAL_Driver/Inc/stm32f4xx_ll_tim.h **** /** @defgroup TIM_LL_Private_Macros TIM Private Macros
 136:Drivers/STM32F4xx_HAL_Driver/Inc/stm32f4xx_ll_tim.h ****   * @{
 137:Drivers/STM32F4xx_HAL_Driver/Inc/stm32f4xx_ll_tim.h ****   */
 138:Drivers/STM32F4xx_HAL_Driver/Inc/stm32f4xx_ll_tim.h **** /** @brief  Convert channel id into channel index.
 139:Drivers/STM32F4xx_HAL_Driver/Inc/stm32f4xx_ll_tim.h ****   * @param  __CHANNEL__ This parameter can be one of the following values:
 140:Drivers/STM32F4xx_HAL_Driver/Inc/stm32f4xx_ll_tim.h ****   *         @arg @ref LL_TIM_CHANNEL_CH1
 141:Drivers/STM32F4xx_HAL_Driver/Inc/stm32f4xx_ll_tim.h ****   *         @arg @ref LL_TIM_CHANNEL_CH1N
 142:Drivers/STM32F4xx_HAL_Driver/Inc/stm32f4xx_ll_tim.h ****   *         @arg @ref LL_TIM_CHANNEL_CH2
 143:Drivers/STM32F4xx_HAL_Driver/Inc/stm32f4xx_ll_tim.h ****   *         @arg @ref LL_TIM_CHANNEL_CH2N
 144:Drivers/STM32F4xx_HAL_Driver/Inc/stm32f4xx_ll_tim.h ****   *         @arg @ref LL_TIM_CHANNEL_CH3
 145:Drivers/STM32F4xx_HAL_Driver/Inc/stm32f4xx_ll_tim.h ****   *         @arg @ref LL_TIM_CHANNEL_CH3N
 146:Drivers/STM32F4xx_HAL_Driver/Inc/stm32f4xx_ll_tim.h ****   *         @arg @ref LL_TIM_CHANNEL_CH4
 147:Drivers/STM32F4xx_HAL_Driver/Inc/stm32f4xx_ll_tim.h ****   * @retval none
 148:Drivers/STM32F4xx_HAL_Driver/Inc/stm32f4xx_ll_tim.h ****   */
 149:Drivers/STM32F4xx_HAL_Driver/Inc/stm32f4xx_ll_tim.h **** #define TIM_GET_CHANNEL_INDEX( __CHANNEL__) \
 150:Drivers/STM32F4xx_HAL_Driver/Inc/stm32f4xx_ll_tim.h ****   (((__CHANNEL__) == LL_TIM_CHANNEL_CH1) ? 0U :\
 151:Drivers/STM32F4xx_HAL_Driver/Inc/stm32f4xx_ll_tim.h ****    ((__CHANNEL__) == LL_TIM_CHANNEL_CH1N) ? 1U :\
 152:Drivers/STM32F4xx_HAL_Driver/Inc/stm32f4xx_ll_tim.h ****    ((__CHANNEL__) == LL_TIM_CHANNEL_CH2) ? 2U :\
 153:Drivers/STM32F4xx_HAL_Driver/Inc/stm32f4xx_ll_tim.h ****    ((__CHANNEL__) == LL_TIM_CHANNEL_CH2N) ? 3U :\
 154:Drivers/STM32F4xx_HAL_Driver/Inc/stm32f4xx_ll_tim.h ****    ((__CHANNEL__) == LL_TIM_CHANNEL_CH3) ? 4U :\
 155:Drivers/STM32F4xx_HAL_Driver/Inc/stm32f4xx_ll_tim.h ****    ((__CHANNEL__) == LL_TIM_CHANNEL_CH3N) ? 5U : 6U)
 156:Drivers/STM32F4xx_HAL_Driver/Inc/stm32f4xx_ll_tim.h **** 
 157:Drivers/STM32F4xx_HAL_Driver/Inc/stm32f4xx_ll_tim.h **** /** @brief  Calculate the deadtime sampling period(in ps).
 158:Drivers/STM32F4xx_HAL_Driver/Inc/stm32f4xx_ll_tim.h ****   * @param  __TIMCLK__ timer input clock frequency (in Hz).
 159:Drivers/STM32F4xx_HAL_Driver/Inc/stm32f4xx_ll_tim.h ****   * @param  __CKD__ This parameter can be one of the following values:
 160:Drivers/STM32F4xx_HAL_Driver/Inc/stm32f4xx_ll_tim.h ****   *         @arg @ref LL_TIM_CLOCKDIVISION_DIV1
 161:Drivers/STM32F4xx_HAL_Driver/Inc/stm32f4xx_ll_tim.h ****   *         @arg @ref LL_TIM_CLOCKDIVISION_DIV2
 162:Drivers/STM32F4xx_HAL_Driver/Inc/stm32f4xx_ll_tim.h ****   *         @arg @ref LL_TIM_CLOCKDIVISION_DIV4
 163:Drivers/STM32F4xx_HAL_Driver/Inc/stm32f4xx_ll_tim.h ****   * @retval none
 164:Drivers/STM32F4xx_HAL_Driver/Inc/stm32f4xx_ll_tim.h ****   */
 165:Drivers/STM32F4xx_HAL_Driver/Inc/stm32f4xx_ll_tim.h **** #define TIM_CALC_DTS(__TIMCLK__, __CKD__)                                                        \
 166:Drivers/STM32F4xx_HAL_Driver/Inc/stm32f4xx_ll_tim.h ****   (((__CKD__) == LL_TIM_CLOCKDIVISION_DIV1) ? ((uint64_t)1000000000000U/(__TIMCLK__))         : \
 167:Drivers/STM32F4xx_HAL_Driver/Inc/stm32f4xx_ll_tim.h ****    ((__CKD__) == LL_TIM_CLOCKDIVISION_DIV2) ? ((uint64_t)1000000000000U/((__TIMCLK__) >> 1U)) : \
 168:Drivers/STM32F4xx_HAL_Driver/Inc/stm32f4xx_ll_tim.h ****    ((uint64_t)1000000000000U/((__TIMCLK__) >> 2U)))
 169:Drivers/STM32F4xx_HAL_Driver/Inc/stm32f4xx_ll_tim.h **** /**
 170:Drivers/STM32F4xx_HAL_Driver/Inc/stm32f4xx_ll_tim.h ****   * @}
 171:Drivers/STM32F4xx_HAL_Driver/Inc/stm32f4xx_ll_tim.h ****   */
 172:Drivers/STM32F4xx_HAL_Driver/Inc/stm32f4xx_ll_tim.h **** 
 173:Drivers/STM32F4xx_HAL_Driver/Inc/stm32f4xx_ll_tim.h **** 
 174:Drivers/STM32F4xx_HAL_Driver/Inc/stm32f4xx_ll_tim.h **** /* Exported types ------------------------------------------------------------*/
 175:Drivers/STM32F4xx_HAL_Driver/Inc/stm32f4xx_ll_tim.h **** #if defined(USE_FULL_LL_DRIVER)
 176:Drivers/STM32F4xx_HAL_Driver/Inc/stm32f4xx_ll_tim.h **** /** @defgroup TIM_LL_ES_INIT TIM Exported Init structure
 177:Drivers/STM32F4xx_HAL_Driver/Inc/stm32f4xx_ll_tim.h ****   * @{
ARM GAS  C:\Users\paulp\AppData\Local\Temp\cc1vPtHZ.s 			page 14


 178:Drivers/STM32F4xx_HAL_Driver/Inc/stm32f4xx_ll_tim.h ****   */
 179:Drivers/STM32F4xx_HAL_Driver/Inc/stm32f4xx_ll_tim.h **** 
 180:Drivers/STM32F4xx_HAL_Driver/Inc/stm32f4xx_ll_tim.h **** /**
 181:Drivers/STM32F4xx_HAL_Driver/Inc/stm32f4xx_ll_tim.h ****   * @brief  TIM Time Base configuration structure definition.
 182:Drivers/STM32F4xx_HAL_Driver/Inc/stm32f4xx_ll_tim.h ****   */
 183:Drivers/STM32F4xx_HAL_Driver/Inc/stm32f4xx_ll_tim.h **** typedef struct
 184:Drivers/STM32F4xx_HAL_Driver/Inc/stm32f4xx_ll_tim.h **** {
 185:Drivers/STM32F4xx_HAL_Driver/Inc/stm32f4xx_ll_tim.h ****   uint16_t Prescaler;         /*!< Specifies the prescaler value used to divide the TIM clock.
 186:Drivers/STM32F4xx_HAL_Driver/Inc/stm32f4xx_ll_tim.h ****                                    This parameter can be a number between Min_Data=0x0000 and Max_D
 187:Drivers/STM32F4xx_HAL_Driver/Inc/stm32f4xx_ll_tim.h **** 
 188:Drivers/STM32F4xx_HAL_Driver/Inc/stm32f4xx_ll_tim.h ****                                    This feature can be modified afterwards using unitary function
 189:Drivers/STM32F4xx_HAL_Driver/Inc/stm32f4xx_ll_tim.h ****                                    @ref LL_TIM_SetPrescaler().*/
 190:Drivers/STM32F4xx_HAL_Driver/Inc/stm32f4xx_ll_tim.h **** 
 191:Drivers/STM32F4xx_HAL_Driver/Inc/stm32f4xx_ll_tim.h ****   uint32_t CounterMode;       /*!< Specifies the counter mode.
 192:Drivers/STM32F4xx_HAL_Driver/Inc/stm32f4xx_ll_tim.h ****                                    This parameter can be a value of @ref TIM_LL_EC_COUNTERMODE.
 193:Drivers/STM32F4xx_HAL_Driver/Inc/stm32f4xx_ll_tim.h **** 
 194:Drivers/STM32F4xx_HAL_Driver/Inc/stm32f4xx_ll_tim.h ****                                    This feature can be modified afterwards using unitary function
 195:Drivers/STM32F4xx_HAL_Driver/Inc/stm32f4xx_ll_tim.h ****                                    @ref LL_TIM_SetCounterMode().*/
 196:Drivers/STM32F4xx_HAL_Driver/Inc/stm32f4xx_ll_tim.h **** 
 197:Drivers/STM32F4xx_HAL_Driver/Inc/stm32f4xx_ll_tim.h ****   uint32_t Autoreload;        /*!< Specifies the auto reload value to be loaded into the active
 198:Drivers/STM32F4xx_HAL_Driver/Inc/stm32f4xx_ll_tim.h ****                                    Auto-Reload Register at the next update event.
 199:Drivers/STM32F4xx_HAL_Driver/Inc/stm32f4xx_ll_tim.h ****                                    This parameter must be a number between Min_Data=0x0000 and Max_
 200:Drivers/STM32F4xx_HAL_Driver/Inc/stm32f4xx_ll_tim.h ****                                    Some timer instances may support 32 bits counters. In that case 
 201:Drivers/STM32F4xx_HAL_Driver/Inc/stm32f4xx_ll_tim.h ****                                    be a number between 0x0000 and 0xFFFFFFFF.
 202:Drivers/STM32F4xx_HAL_Driver/Inc/stm32f4xx_ll_tim.h **** 
 203:Drivers/STM32F4xx_HAL_Driver/Inc/stm32f4xx_ll_tim.h ****                                    This feature can be modified afterwards using unitary function
 204:Drivers/STM32F4xx_HAL_Driver/Inc/stm32f4xx_ll_tim.h ****                                    @ref LL_TIM_SetAutoReload().*/
 205:Drivers/STM32F4xx_HAL_Driver/Inc/stm32f4xx_ll_tim.h **** 
 206:Drivers/STM32F4xx_HAL_Driver/Inc/stm32f4xx_ll_tim.h ****   uint32_t ClockDivision;     /*!< Specifies the clock division.
 207:Drivers/STM32F4xx_HAL_Driver/Inc/stm32f4xx_ll_tim.h ****                                    This parameter can be a value of @ref TIM_LL_EC_CLOCKDIVISION.
 208:Drivers/STM32F4xx_HAL_Driver/Inc/stm32f4xx_ll_tim.h **** 
 209:Drivers/STM32F4xx_HAL_Driver/Inc/stm32f4xx_ll_tim.h ****                                    This feature can be modified afterwards using unitary function
 210:Drivers/STM32F4xx_HAL_Driver/Inc/stm32f4xx_ll_tim.h ****                                    @ref LL_TIM_SetClockDivision().*/
 211:Drivers/STM32F4xx_HAL_Driver/Inc/stm32f4xx_ll_tim.h **** 
 212:Drivers/STM32F4xx_HAL_Driver/Inc/stm32f4xx_ll_tim.h ****   uint32_t RepetitionCounter;  /*!< Specifies the repetition counter value. Each time the RCR downc
 213:Drivers/STM32F4xx_HAL_Driver/Inc/stm32f4xx_ll_tim.h ****                                    reaches zero, an update event is generated and counting restarts
 214:Drivers/STM32F4xx_HAL_Driver/Inc/stm32f4xx_ll_tim.h ****                                    from the RCR value (N).
 215:Drivers/STM32F4xx_HAL_Driver/Inc/stm32f4xx_ll_tim.h ****                                    This means in PWM mode that (N+1) corresponds to:
 216:Drivers/STM32F4xx_HAL_Driver/Inc/stm32f4xx_ll_tim.h ****                                       - the number of PWM periods in edge-aligned mode
 217:Drivers/STM32F4xx_HAL_Driver/Inc/stm32f4xx_ll_tim.h ****                                       - the number of half PWM period in center-aligned mode
 218:Drivers/STM32F4xx_HAL_Driver/Inc/stm32f4xx_ll_tim.h ****                                    GP timers: this parameter must be a number between Min_Data = 0x
 219:Drivers/STM32F4xx_HAL_Driver/Inc/stm32f4xx_ll_tim.h ****                                    Max_Data = 0xFF.
 220:Drivers/STM32F4xx_HAL_Driver/Inc/stm32f4xx_ll_tim.h ****                                    Advanced timers: this parameter must be a number between Min_Dat
 221:Drivers/STM32F4xx_HAL_Driver/Inc/stm32f4xx_ll_tim.h ****                                    Max_Data = 0xFFFF.
 222:Drivers/STM32F4xx_HAL_Driver/Inc/stm32f4xx_ll_tim.h **** 
 223:Drivers/STM32F4xx_HAL_Driver/Inc/stm32f4xx_ll_tim.h ****                                    This feature can be modified afterwards using unitary function
 224:Drivers/STM32F4xx_HAL_Driver/Inc/stm32f4xx_ll_tim.h ****                                    @ref LL_TIM_SetRepetitionCounter().*/
 225:Drivers/STM32F4xx_HAL_Driver/Inc/stm32f4xx_ll_tim.h **** } LL_TIM_InitTypeDef;
 226:Drivers/STM32F4xx_HAL_Driver/Inc/stm32f4xx_ll_tim.h **** 
 227:Drivers/STM32F4xx_HAL_Driver/Inc/stm32f4xx_ll_tim.h **** /**
 228:Drivers/STM32F4xx_HAL_Driver/Inc/stm32f4xx_ll_tim.h ****   * @brief  TIM Output Compare configuration structure definition.
 229:Drivers/STM32F4xx_HAL_Driver/Inc/stm32f4xx_ll_tim.h ****   */
 230:Drivers/STM32F4xx_HAL_Driver/Inc/stm32f4xx_ll_tim.h **** typedef struct
 231:Drivers/STM32F4xx_HAL_Driver/Inc/stm32f4xx_ll_tim.h **** {
 232:Drivers/STM32F4xx_HAL_Driver/Inc/stm32f4xx_ll_tim.h ****   uint32_t OCMode;        /*!< Specifies the output mode.
 233:Drivers/STM32F4xx_HAL_Driver/Inc/stm32f4xx_ll_tim.h ****                                This parameter can be a value of @ref TIM_LL_EC_OCMODE.
 234:Drivers/STM32F4xx_HAL_Driver/Inc/stm32f4xx_ll_tim.h **** 
ARM GAS  C:\Users\paulp\AppData\Local\Temp\cc1vPtHZ.s 			page 15


 235:Drivers/STM32F4xx_HAL_Driver/Inc/stm32f4xx_ll_tim.h ****                                This feature can be modified afterwards using unitary function
 236:Drivers/STM32F4xx_HAL_Driver/Inc/stm32f4xx_ll_tim.h ****                                @ref LL_TIM_OC_SetMode().*/
 237:Drivers/STM32F4xx_HAL_Driver/Inc/stm32f4xx_ll_tim.h **** 
 238:Drivers/STM32F4xx_HAL_Driver/Inc/stm32f4xx_ll_tim.h ****   uint32_t OCState;       /*!< Specifies the TIM Output Compare state.
 239:Drivers/STM32F4xx_HAL_Driver/Inc/stm32f4xx_ll_tim.h ****                                This parameter can be a value of @ref TIM_LL_EC_OCSTATE.
 240:Drivers/STM32F4xx_HAL_Driver/Inc/stm32f4xx_ll_tim.h **** 
 241:Drivers/STM32F4xx_HAL_Driver/Inc/stm32f4xx_ll_tim.h ****                                This feature can be modified afterwards using unitary functions
 242:Drivers/STM32F4xx_HAL_Driver/Inc/stm32f4xx_ll_tim.h ****                                @ref LL_TIM_CC_EnableChannel() or @ref LL_TIM_CC_DisableChannel().*/
 243:Drivers/STM32F4xx_HAL_Driver/Inc/stm32f4xx_ll_tim.h **** 
 244:Drivers/STM32F4xx_HAL_Driver/Inc/stm32f4xx_ll_tim.h ****   uint32_t OCNState;      /*!< Specifies the TIM complementary Output Compare state.
 245:Drivers/STM32F4xx_HAL_Driver/Inc/stm32f4xx_ll_tim.h ****                                This parameter can be a value of @ref TIM_LL_EC_OCSTATE.
 246:Drivers/STM32F4xx_HAL_Driver/Inc/stm32f4xx_ll_tim.h **** 
 247:Drivers/STM32F4xx_HAL_Driver/Inc/stm32f4xx_ll_tim.h ****                                This feature can be modified afterwards using unitary functions
 248:Drivers/STM32F4xx_HAL_Driver/Inc/stm32f4xx_ll_tim.h ****                                @ref LL_TIM_CC_EnableChannel() or @ref LL_TIM_CC_DisableChannel().*/
 249:Drivers/STM32F4xx_HAL_Driver/Inc/stm32f4xx_ll_tim.h **** 
 250:Drivers/STM32F4xx_HAL_Driver/Inc/stm32f4xx_ll_tim.h ****   uint32_t CompareValue;  /*!< Specifies the Compare value to be loaded into the Capture Compare Re
 251:Drivers/STM32F4xx_HAL_Driver/Inc/stm32f4xx_ll_tim.h ****                                This parameter can be a number between Min_Data=0x0000 and Max_Data=
 252:Drivers/STM32F4xx_HAL_Driver/Inc/stm32f4xx_ll_tim.h **** 
 253:Drivers/STM32F4xx_HAL_Driver/Inc/stm32f4xx_ll_tim.h ****                                This feature can be modified afterwards using unitary function
 254:Drivers/STM32F4xx_HAL_Driver/Inc/stm32f4xx_ll_tim.h ****                                LL_TIM_OC_SetCompareCHx (x=1..6).*/
 255:Drivers/STM32F4xx_HAL_Driver/Inc/stm32f4xx_ll_tim.h **** 
 256:Drivers/STM32F4xx_HAL_Driver/Inc/stm32f4xx_ll_tim.h ****   uint32_t OCPolarity;    /*!< Specifies the output polarity.
 257:Drivers/STM32F4xx_HAL_Driver/Inc/stm32f4xx_ll_tim.h ****                                This parameter can be a value of @ref TIM_LL_EC_OCPOLARITY.
 258:Drivers/STM32F4xx_HAL_Driver/Inc/stm32f4xx_ll_tim.h **** 
 259:Drivers/STM32F4xx_HAL_Driver/Inc/stm32f4xx_ll_tim.h ****                                This feature can be modified afterwards using unitary function
 260:Drivers/STM32F4xx_HAL_Driver/Inc/stm32f4xx_ll_tim.h ****                                @ref LL_TIM_OC_SetPolarity().*/
 261:Drivers/STM32F4xx_HAL_Driver/Inc/stm32f4xx_ll_tim.h **** 
 262:Drivers/STM32F4xx_HAL_Driver/Inc/stm32f4xx_ll_tim.h ****   uint32_t OCNPolarity;   /*!< Specifies the complementary output polarity.
 263:Drivers/STM32F4xx_HAL_Driver/Inc/stm32f4xx_ll_tim.h ****                                This parameter can be a value of @ref TIM_LL_EC_OCPOLARITY.
 264:Drivers/STM32F4xx_HAL_Driver/Inc/stm32f4xx_ll_tim.h **** 
 265:Drivers/STM32F4xx_HAL_Driver/Inc/stm32f4xx_ll_tim.h ****                                This feature can be modified afterwards using unitary function
 266:Drivers/STM32F4xx_HAL_Driver/Inc/stm32f4xx_ll_tim.h ****                                @ref LL_TIM_OC_SetPolarity().*/
 267:Drivers/STM32F4xx_HAL_Driver/Inc/stm32f4xx_ll_tim.h **** 
 268:Drivers/STM32F4xx_HAL_Driver/Inc/stm32f4xx_ll_tim.h **** 
 269:Drivers/STM32F4xx_HAL_Driver/Inc/stm32f4xx_ll_tim.h ****   uint32_t OCIdleState;   /*!< Specifies the TIM Output Compare pin state during Idle state.
 270:Drivers/STM32F4xx_HAL_Driver/Inc/stm32f4xx_ll_tim.h ****                                This parameter can be a value of @ref TIM_LL_EC_OCIDLESTATE.
 271:Drivers/STM32F4xx_HAL_Driver/Inc/stm32f4xx_ll_tim.h **** 
 272:Drivers/STM32F4xx_HAL_Driver/Inc/stm32f4xx_ll_tim.h ****                                This feature can be modified afterwards using unitary function
 273:Drivers/STM32F4xx_HAL_Driver/Inc/stm32f4xx_ll_tim.h ****                                @ref LL_TIM_OC_SetIdleState().*/
 274:Drivers/STM32F4xx_HAL_Driver/Inc/stm32f4xx_ll_tim.h **** 
 275:Drivers/STM32F4xx_HAL_Driver/Inc/stm32f4xx_ll_tim.h ****   uint32_t OCNIdleState;  /*!< Specifies the TIM Output Compare pin state during Idle state.
 276:Drivers/STM32F4xx_HAL_Driver/Inc/stm32f4xx_ll_tim.h ****                                This parameter can be a value of @ref TIM_LL_EC_OCIDLESTATE.
 277:Drivers/STM32F4xx_HAL_Driver/Inc/stm32f4xx_ll_tim.h **** 
 278:Drivers/STM32F4xx_HAL_Driver/Inc/stm32f4xx_ll_tim.h ****                                This feature can be modified afterwards using unitary function
 279:Drivers/STM32F4xx_HAL_Driver/Inc/stm32f4xx_ll_tim.h ****                                @ref LL_TIM_OC_SetIdleState().*/
 280:Drivers/STM32F4xx_HAL_Driver/Inc/stm32f4xx_ll_tim.h **** } LL_TIM_OC_InitTypeDef;
 281:Drivers/STM32F4xx_HAL_Driver/Inc/stm32f4xx_ll_tim.h **** 
 282:Drivers/STM32F4xx_HAL_Driver/Inc/stm32f4xx_ll_tim.h **** /**
 283:Drivers/STM32F4xx_HAL_Driver/Inc/stm32f4xx_ll_tim.h ****   * @brief  TIM Input Capture configuration structure definition.
 284:Drivers/STM32F4xx_HAL_Driver/Inc/stm32f4xx_ll_tim.h ****   */
 285:Drivers/STM32F4xx_HAL_Driver/Inc/stm32f4xx_ll_tim.h **** 
 286:Drivers/STM32F4xx_HAL_Driver/Inc/stm32f4xx_ll_tim.h **** typedef struct
 287:Drivers/STM32F4xx_HAL_Driver/Inc/stm32f4xx_ll_tim.h **** {
 288:Drivers/STM32F4xx_HAL_Driver/Inc/stm32f4xx_ll_tim.h **** 
 289:Drivers/STM32F4xx_HAL_Driver/Inc/stm32f4xx_ll_tim.h ****   uint32_t ICPolarity;    /*!< Specifies the active edge of the input signal.
 290:Drivers/STM32F4xx_HAL_Driver/Inc/stm32f4xx_ll_tim.h ****                                This parameter can be a value of @ref TIM_LL_EC_IC_POLARITY.
 291:Drivers/STM32F4xx_HAL_Driver/Inc/stm32f4xx_ll_tim.h **** 
ARM GAS  C:\Users\paulp\AppData\Local\Temp\cc1vPtHZ.s 			page 16


 292:Drivers/STM32F4xx_HAL_Driver/Inc/stm32f4xx_ll_tim.h ****                                This feature can be modified afterwards using unitary function
 293:Drivers/STM32F4xx_HAL_Driver/Inc/stm32f4xx_ll_tim.h ****                                @ref LL_TIM_IC_SetPolarity().*/
 294:Drivers/STM32F4xx_HAL_Driver/Inc/stm32f4xx_ll_tim.h **** 
 295:Drivers/STM32F4xx_HAL_Driver/Inc/stm32f4xx_ll_tim.h ****   uint32_t ICActiveInput; /*!< Specifies the input.
 296:Drivers/STM32F4xx_HAL_Driver/Inc/stm32f4xx_ll_tim.h ****                                This parameter can be a value of @ref TIM_LL_EC_ACTIVEINPUT.
 297:Drivers/STM32F4xx_HAL_Driver/Inc/stm32f4xx_ll_tim.h **** 
 298:Drivers/STM32F4xx_HAL_Driver/Inc/stm32f4xx_ll_tim.h ****                                This feature can be modified afterwards using unitary function
 299:Drivers/STM32F4xx_HAL_Driver/Inc/stm32f4xx_ll_tim.h ****                                @ref LL_TIM_IC_SetActiveInput().*/
 300:Drivers/STM32F4xx_HAL_Driver/Inc/stm32f4xx_ll_tim.h **** 
 301:Drivers/STM32F4xx_HAL_Driver/Inc/stm32f4xx_ll_tim.h ****   uint32_t ICPrescaler;   /*!< Specifies the Input Capture Prescaler.
 302:Drivers/STM32F4xx_HAL_Driver/Inc/stm32f4xx_ll_tim.h ****                                This parameter can be a value of @ref TIM_LL_EC_ICPSC.
 303:Drivers/STM32F4xx_HAL_Driver/Inc/stm32f4xx_ll_tim.h **** 
 304:Drivers/STM32F4xx_HAL_Driver/Inc/stm32f4xx_ll_tim.h ****                                This feature can be modified afterwards using unitary function
 305:Drivers/STM32F4xx_HAL_Driver/Inc/stm32f4xx_ll_tim.h ****                                @ref LL_TIM_IC_SetPrescaler().*/
 306:Drivers/STM32F4xx_HAL_Driver/Inc/stm32f4xx_ll_tim.h **** 
 307:Drivers/STM32F4xx_HAL_Driver/Inc/stm32f4xx_ll_tim.h ****   uint32_t ICFilter;      /*!< Specifies the input capture filter.
 308:Drivers/STM32F4xx_HAL_Driver/Inc/stm32f4xx_ll_tim.h ****                                This parameter can be a value of @ref TIM_LL_EC_IC_FILTER.
 309:Drivers/STM32F4xx_HAL_Driver/Inc/stm32f4xx_ll_tim.h **** 
 310:Drivers/STM32F4xx_HAL_Driver/Inc/stm32f4xx_ll_tim.h ****                                This feature can be modified afterwards using unitary function
 311:Drivers/STM32F4xx_HAL_Driver/Inc/stm32f4xx_ll_tim.h ****                                @ref LL_TIM_IC_SetFilter().*/
 312:Drivers/STM32F4xx_HAL_Driver/Inc/stm32f4xx_ll_tim.h **** } LL_TIM_IC_InitTypeDef;
 313:Drivers/STM32F4xx_HAL_Driver/Inc/stm32f4xx_ll_tim.h **** 
 314:Drivers/STM32F4xx_HAL_Driver/Inc/stm32f4xx_ll_tim.h **** 
 315:Drivers/STM32F4xx_HAL_Driver/Inc/stm32f4xx_ll_tim.h **** /**
 316:Drivers/STM32F4xx_HAL_Driver/Inc/stm32f4xx_ll_tim.h ****   * @brief  TIM Encoder interface configuration structure definition.
 317:Drivers/STM32F4xx_HAL_Driver/Inc/stm32f4xx_ll_tim.h ****   */
 318:Drivers/STM32F4xx_HAL_Driver/Inc/stm32f4xx_ll_tim.h **** typedef struct
 319:Drivers/STM32F4xx_HAL_Driver/Inc/stm32f4xx_ll_tim.h **** {
 320:Drivers/STM32F4xx_HAL_Driver/Inc/stm32f4xx_ll_tim.h ****   uint32_t EncoderMode;     /*!< Specifies the encoder resolution (x2 or x4).
 321:Drivers/STM32F4xx_HAL_Driver/Inc/stm32f4xx_ll_tim.h ****                                  This parameter can be a value of @ref TIM_LL_EC_ENCODERMODE.
 322:Drivers/STM32F4xx_HAL_Driver/Inc/stm32f4xx_ll_tim.h **** 
 323:Drivers/STM32F4xx_HAL_Driver/Inc/stm32f4xx_ll_tim.h ****                                  This feature can be modified afterwards using unitary function
 324:Drivers/STM32F4xx_HAL_Driver/Inc/stm32f4xx_ll_tim.h ****                                  @ref LL_TIM_SetEncoderMode().*/
 325:Drivers/STM32F4xx_HAL_Driver/Inc/stm32f4xx_ll_tim.h **** 
 326:Drivers/STM32F4xx_HAL_Driver/Inc/stm32f4xx_ll_tim.h ****   uint32_t IC1Polarity;     /*!< Specifies the active edge of TI1 input.
 327:Drivers/STM32F4xx_HAL_Driver/Inc/stm32f4xx_ll_tim.h ****                                  This parameter can be a value of @ref TIM_LL_EC_IC_POLARITY.
 328:Drivers/STM32F4xx_HAL_Driver/Inc/stm32f4xx_ll_tim.h **** 
 329:Drivers/STM32F4xx_HAL_Driver/Inc/stm32f4xx_ll_tim.h ****                                  This feature can be modified afterwards using unitary function
 330:Drivers/STM32F4xx_HAL_Driver/Inc/stm32f4xx_ll_tim.h ****                                  @ref LL_TIM_IC_SetPolarity().*/
 331:Drivers/STM32F4xx_HAL_Driver/Inc/stm32f4xx_ll_tim.h **** 
 332:Drivers/STM32F4xx_HAL_Driver/Inc/stm32f4xx_ll_tim.h ****   uint32_t IC1ActiveInput;  /*!< Specifies the TI1 input source
 333:Drivers/STM32F4xx_HAL_Driver/Inc/stm32f4xx_ll_tim.h ****                                  This parameter can be a value of @ref TIM_LL_EC_ACTIVEINPUT.
 334:Drivers/STM32F4xx_HAL_Driver/Inc/stm32f4xx_ll_tim.h **** 
 335:Drivers/STM32F4xx_HAL_Driver/Inc/stm32f4xx_ll_tim.h ****                                  This feature can be modified afterwards using unitary function
 336:Drivers/STM32F4xx_HAL_Driver/Inc/stm32f4xx_ll_tim.h ****                                  @ref LL_TIM_IC_SetActiveInput().*/
 337:Drivers/STM32F4xx_HAL_Driver/Inc/stm32f4xx_ll_tim.h **** 
 338:Drivers/STM32F4xx_HAL_Driver/Inc/stm32f4xx_ll_tim.h ****   uint32_t IC1Prescaler;    /*!< Specifies the TI1 input prescaler value.
 339:Drivers/STM32F4xx_HAL_Driver/Inc/stm32f4xx_ll_tim.h ****                                  This parameter can be a value of @ref TIM_LL_EC_ICPSC.
 340:Drivers/STM32F4xx_HAL_Driver/Inc/stm32f4xx_ll_tim.h **** 
 341:Drivers/STM32F4xx_HAL_Driver/Inc/stm32f4xx_ll_tim.h ****                                  This feature can be modified afterwards using unitary function
 342:Drivers/STM32F4xx_HAL_Driver/Inc/stm32f4xx_ll_tim.h ****                                  @ref LL_TIM_IC_SetPrescaler().*/
 343:Drivers/STM32F4xx_HAL_Driver/Inc/stm32f4xx_ll_tim.h **** 
 344:Drivers/STM32F4xx_HAL_Driver/Inc/stm32f4xx_ll_tim.h ****   uint32_t IC1Filter;       /*!< Specifies the TI1 input filter.
 345:Drivers/STM32F4xx_HAL_Driver/Inc/stm32f4xx_ll_tim.h ****                                  This parameter can be a value of @ref TIM_LL_EC_IC_FILTER.
 346:Drivers/STM32F4xx_HAL_Driver/Inc/stm32f4xx_ll_tim.h **** 
 347:Drivers/STM32F4xx_HAL_Driver/Inc/stm32f4xx_ll_tim.h ****                                  This feature can be modified afterwards using unitary function
 348:Drivers/STM32F4xx_HAL_Driver/Inc/stm32f4xx_ll_tim.h ****                                  @ref LL_TIM_IC_SetFilter().*/
ARM GAS  C:\Users\paulp\AppData\Local\Temp\cc1vPtHZ.s 			page 17


 349:Drivers/STM32F4xx_HAL_Driver/Inc/stm32f4xx_ll_tim.h **** 
 350:Drivers/STM32F4xx_HAL_Driver/Inc/stm32f4xx_ll_tim.h ****   uint32_t IC2Polarity;      /*!< Specifies the active edge of TI2 input.
 351:Drivers/STM32F4xx_HAL_Driver/Inc/stm32f4xx_ll_tim.h ****                                  This parameter can be a value of @ref TIM_LL_EC_IC_POLARITY.
 352:Drivers/STM32F4xx_HAL_Driver/Inc/stm32f4xx_ll_tim.h **** 
 353:Drivers/STM32F4xx_HAL_Driver/Inc/stm32f4xx_ll_tim.h ****                                  This feature can be modified afterwards using unitary function
 354:Drivers/STM32F4xx_HAL_Driver/Inc/stm32f4xx_ll_tim.h ****                                  @ref LL_TIM_IC_SetPolarity().*/
 355:Drivers/STM32F4xx_HAL_Driver/Inc/stm32f4xx_ll_tim.h **** 
 356:Drivers/STM32F4xx_HAL_Driver/Inc/stm32f4xx_ll_tim.h ****   uint32_t IC2ActiveInput;  /*!< Specifies the TI2 input source
 357:Drivers/STM32F4xx_HAL_Driver/Inc/stm32f4xx_ll_tim.h ****                                  This parameter can be a value of @ref TIM_LL_EC_ACTIVEINPUT.
 358:Drivers/STM32F4xx_HAL_Driver/Inc/stm32f4xx_ll_tim.h **** 
 359:Drivers/STM32F4xx_HAL_Driver/Inc/stm32f4xx_ll_tim.h ****                                  This feature can be modified afterwards using unitary function
 360:Drivers/STM32F4xx_HAL_Driver/Inc/stm32f4xx_ll_tim.h ****                                  @ref LL_TIM_IC_SetActiveInput().*/
 361:Drivers/STM32F4xx_HAL_Driver/Inc/stm32f4xx_ll_tim.h **** 
 362:Drivers/STM32F4xx_HAL_Driver/Inc/stm32f4xx_ll_tim.h ****   uint32_t IC2Prescaler;    /*!< Specifies the TI2 input prescaler value.
 363:Drivers/STM32F4xx_HAL_Driver/Inc/stm32f4xx_ll_tim.h ****                                  This parameter can be a value of @ref TIM_LL_EC_ICPSC.
 364:Drivers/STM32F4xx_HAL_Driver/Inc/stm32f4xx_ll_tim.h **** 
 365:Drivers/STM32F4xx_HAL_Driver/Inc/stm32f4xx_ll_tim.h ****                                  This feature can be modified afterwards using unitary function
 366:Drivers/STM32F4xx_HAL_Driver/Inc/stm32f4xx_ll_tim.h ****                                  @ref LL_TIM_IC_SetPrescaler().*/
 367:Drivers/STM32F4xx_HAL_Driver/Inc/stm32f4xx_ll_tim.h **** 
 368:Drivers/STM32F4xx_HAL_Driver/Inc/stm32f4xx_ll_tim.h ****   uint32_t IC2Filter;       /*!< Specifies the TI2 input filter.
 369:Drivers/STM32F4xx_HAL_Driver/Inc/stm32f4xx_ll_tim.h ****                                  This parameter can be a value of @ref TIM_LL_EC_IC_FILTER.
 370:Drivers/STM32F4xx_HAL_Driver/Inc/stm32f4xx_ll_tim.h **** 
 371:Drivers/STM32F4xx_HAL_Driver/Inc/stm32f4xx_ll_tim.h ****                                  This feature can be modified afterwards using unitary function
 372:Drivers/STM32F4xx_HAL_Driver/Inc/stm32f4xx_ll_tim.h ****                                  @ref LL_TIM_IC_SetFilter().*/
 373:Drivers/STM32F4xx_HAL_Driver/Inc/stm32f4xx_ll_tim.h **** 
 374:Drivers/STM32F4xx_HAL_Driver/Inc/stm32f4xx_ll_tim.h **** } LL_TIM_ENCODER_InitTypeDef;
 375:Drivers/STM32F4xx_HAL_Driver/Inc/stm32f4xx_ll_tim.h **** 
 376:Drivers/STM32F4xx_HAL_Driver/Inc/stm32f4xx_ll_tim.h **** /**
 377:Drivers/STM32F4xx_HAL_Driver/Inc/stm32f4xx_ll_tim.h ****   * @brief  TIM Hall sensor interface configuration structure definition.
 378:Drivers/STM32F4xx_HAL_Driver/Inc/stm32f4xx_ll_tim.h ****   */
 379:Drivers/STM32F4xx_HAL_Driver/Inc/stm32f4xx_ll_tim.h **** typedef struct
 380:Drivers/STM32F4xx_HAL_Driver/Inc/stm32f4xx_ll_tim.h **** {
 381:Drivers/STM32F4xx_HAL_Driver/Inc/stm32f4xx_ll_tim.h **** 
 382:Drivers/STM32F4xx_HAL_Driver/Inc/stm32f4xx_ll_tim.h ****   uint32_t IC1Polarity;        /*!< Specifies the active edge of TI1 input.
 383:Drivers/STM32F4xx_HAL_Driver/Inc/stm32f4xx_ll_tim.h ****                                     This parameter can be a value of @ref TIM_LL_EC_IC_POLARITY.
 384:Drivers/STM32F4xx_HAL_Driver/Inc/stm32f4xx_ll_tim.h **** 
 385:Drivers/STM32F4xx_HAL_Driver/Inc/stm32f4xx_ll_tim.h ****                                     This feature can be modified afterwards using unitary function
 386:Drivers/STM32F4xx_HAL_Driver/Inc/stm32f4xx_ll_tim.h ****                                     @ref LL_TIM_IC_SetPolarity().*/
 387:Drivers/STM32F4xx_HAL_Driver/Inc/stm32f4xx_ll_tim.h **** 
 388:Drivers/STM32F4xx_HAL_Driver/Inc/stm32f4xx_ll_tim.h ****   uint32_t IC1Prescaler;       /*!< Specifies the TI1 input prescaler value.
 389:Drivers/STM32F4xx_HAL_Driver/Inc/stm32f4xx_ll_tim.h ****                                     Prescaler must be set to get a maximum counter period longer th
 390:Drivers/STM32F4xx_HAL_Driver/Inc/stm32f4xx_ll_tim.h ****                                     time interval between 2 consecutive changes on the Hall inputs.
 391:Drivers/STM32F4xx_HAL_Driver/Inc/stm32f4xx_ll_tim.h ****                                     This parameter can be a value of @ref TIM_LL_EC_ICPSC.
 392:Drivers/STM32F4xx_HAL_Driver/Inc/stm32f4xx_ll_tim.h **** 
 393:Drivers/STM32F4xx_HAL_Driver/Inc/stm32f4xx_ll_tim.h ****                                     This feature can be modified afterwards using unitary function
 394:Drivers/STM32F4xx_HAL_Driver/Inc/stm32f4xx_ll_tim.h ****                                     @ref LL_TIM_IC_SetPrescaler().*/
 395:Drivers/STM32F4xx_HAL_Driver/Inc/stm32f4xx_ll_tim.h **** 
 396:Drivers/STM32F4xx_HAL_Driver/Inc/stm32f4xx_ll_tim.h ****   uint32_t IC1Filter;          /*!< Specifies the TI1 input filter.
 397:Drivers/STM32F4xx_HAL_Driver/Inc/stm32f4xx_ll_tim.h ****                                     This parameter can be a value of
 398:Drivers/STM32F4xx_HAL_Driver/Inc/stm32f4xx_ll_tim.h ****                                     @ref TIM_LL_EC_IC_FILTER.
 399:Drivers/STM32F4xx_HAL_Driver/Inc/stm32f4xx_ll_tim.h **** 
 400:Drivers/STM32F4xx_HAL_Driver/Inc/stm32f4xx_ll_tim.h ****                                     This feature can be modified afterwards using unitary function
 401:Drivers/STM32F4xx_HAL_Driver/Inc/stm32f4xx_ll_tim.h ****                                     @ref LL_TIM_IC_SetFilter().*/
 402:Drivers/STM32F4xx_HAL_Driver/Inc/stm32f4xx_ll_tim.h **** 
 403:Drivers/STM32F4xx_HAL_Driver/Inc/stm32f4xx_ll_tim.h ****   uint32_t CommutationDelay;   /*!< Specifies the compare value to be loaded into the Capture Compa
 404:Drivers/STM32F4xx_HAL_Driver/Inc/stm32f4xx_ll_tim.h ****                                     A positive pulse (TRGO event) is generated with a programmable 
 405:Drivers/STM32F4xx_HAL_Driver/Inc/stm32f4xx_ll_tim.h ****                                     a change occurs on the Hall inputs.
ARM GAS  C:\Users\paulp\AppData\Local\Temp\cc1vPtHZ.s 			page 18


 406:Drivers/STM32F4xx_HAL_Driver/Inc/stm32f4xx_ll_tim.h ****                                     This parameter can be a number between Min_Data = 0x0000 and Ma
 407:Drivers/STM32F4xx_HAL_Driver/Inc/stm32f4xx_ll_tim.h **** 
 408:Drivers/STM32F4xx_HAL_Driver/Inc/stm32f4xx_ll_tim.h ****                                     This feature can be modified afterwards using unitary function
 409:Drivers/STM32F4xx_HAL_Driver/Inc/stm32f4xx_ll_tim.h ****                                     @ref LL_TIM_OC_SetCompareCH2().*/
 410:Drivers/STM32F4xx_HAL_Driver/Inc/stm32f4xx_ll_tim.h **** } LL_TIM_HALLSENSOR_InitTypeDef;
 411:Drivers/STM32F4xx_HAL_Driver/Inc/stm32f4xx_ll_tim.h **** 
 412:Drivers/STM32F4xx_HAL_Driver/Inc/stm32f4xx_ll_tim.h **** /**
 413:Drivers/STM32F4xx_HAL_Driver/Inc/stm32f4xx_ll_tim.h ****   * @brief  BDTR (Break and Dead Time) structure definition
 414:Drivers/STM32F4xx_HAL_Driver/Inc/stm32f4xx_ll_tim.h ****   */
 415:Drivers/STM32F4xx_HAL_Driver/Inc/stm32f4xx_ll_tim.h **** typedef struct
 416:Drivers/STM32F4xx_HAL_Driver/Inc/stm32f4xx_ll_tim.h **** {
 417:Drivers/STM32F4xx_HAL_Driver/Inc/stm32f4xx_ll_tim.h ****   uint32_t OSSRState;            /*!< Specifies the Off-State selection used in Run mode.
 418:Drivers/STM32F4xx_HAL_Driver/Inc/stm32f4xx_ll_tim.h ****                                       This parameter can be a value of @ref TIM_LL_EC_OSSR
 419:Drivers/STM32F4xx_HAL_Driver/Inc/stm32f4xx_ll_tim.h **** 
 420:Drivers/STM32F4xx_HAL_Driver/Inc/stm32f4xx_ll_tim.h ****                                       This feature can be modified afterwards using unitary functio
 421:Drivers/STM32F4xx_HAL_Driver/Inc/stm32f4xx_ll_tim.h ****                                       @ref LL_TIM_SetOffStates()
 422:Drivers/STM32F4xx_HAL_Driver/Inc/stm32f4xx_ll_tim.h **** 
 423:Drivers/STM32F4xx_HAL_Driver/Inc/stm32f4xx_ll_tim.h ****                                       @note This bit-field cannot be modified as long as LOCK level
 424:Drivers/STM32F4xx_HAL_Driver/Inc/stm32f4xx_ll_tim.h ****                                        programmed. */
 425:Drivers/STM32F4xx_HAL_Driver/Inc/stm32f4xx_ll_tim.h **** 
 426:Drivers/STM32F4xx_HAL_Driver/Inc/stm32f4xx_ll_tim.h ****   uint32_t OSSIState;            /*!< Specifies the Off-State used in Idle state.
 427:Drivers/STM32F4xx_HAL_Driver/Inc/stm32f4xx_ll_tim.h ****                                       This parameter can be a value of @ref TIM_LL_EC_OSSI
 428:Drivers/STM32F4xx_HAL_Driver/Inc/stm32f4xx_ll_tim.h **** 
 429:Drivers/STM32F4xx_HAL_Driver/Inc/stm32f4xx_ll_tim.h ****                                       This feature can be modified afterwards using unitary functio
 430:Drivers/STM32F4xx_HAL_Driver/Inc/stm32f4xx_ll_tim.h ****                                       @ref LL_TIM_SetOffStates()
 431:Drivers/STM32F4xx_HAL_Driver/Inc/stm32f4xx_ll_tim.h **** 
 432:Drivers/STM32F4xx_HAL_Driver/Inc/stm32f4xx_ll_tim.h ****                                       @note This bit-field cannot be modified as long as LOCK level
 433:Drivers/STM32F4xx_HAL_Driver/Inc/stm32f4xx_ll_tim.h ****                                       programmed. */
 434:Drivers/STM32F4xx_HAL_Driver/Inc/stm32f4xx_ll_tim.h **** 
 435:Drivers/STM32F4xx_HAL_Driver/Inc/stm32f4xx_ll_tim.h ****   uint32_t LockLevel;            /*!< Specifies the LOCK level parameters.
 436:Drivers/STM32F4xx_HAL_Driver/Inc/stm32f4xx_ll_tim.h ****                                       This parameter can be a value of @ref TIM_LL_EC_LOCKLEVEL
 437:Drivers/STM32F4xx_HAL_Driver/Inc/stm32f4xx_ll_tim.h **** 
 438:Drivers/STM32F4xx_HAL_Driver/Inc/stm32f4xx_ll_tim.h ****                                       @note The LOCK bits can be written only once after the reset.
 439:Drivers/STM32F4xx_HAL_Driver/Inc/stm32f4xx_ll_tim.h ****                                       register has been written, their content is frozen until the 
 440:Drivers/STM32F4xx_HAL_Driver/Inc/stm32f4xx_ll_tim.h **** 
 441:Drivers/STM32F4xx_HAL_Driver/Inc/stm32f4xx_ll_tim.h ****   uint8_t DeadTime;              /*!< Specifies the delay time between the switching-off and the
 442:Drivers/STM32F4xx_HAL_Driver/Inc/stm32f4xx_ll_tim.h ****                                       switching-on of the outputs.
 443:Drivers/STM32F4xx_HAL_Driver/Inc/stm32f4xx_ll_tim.h ****                                       This parameter can be a number between Min_Data = 0x00 and Ma
 444:Drivers/STM32F4xx_HAL_Driver/Inc/stm32f4xx_ll_tim.h **** 
 445:Drivers/STM32F4xx_HAL_Driver/Inc/stm32f4xx_ll_tim.h ****                                       This feature can be modified afterwards using unitary functio
 446:Drivers/STM32F4xx_HAL_Driver/Inc/stm32f4xx_ll_tim.h ****                                       @ref LL_TIM_OC_SetDeadTime()
 447:Drivers/STM32F4xx_HAL_Driver/Inc/stm32f4xx_ll_tim.h **** 
 448:Drivers/STM32F4xx_HAL_Driver/Inc/stm32f4xx_ll_tim.h ****                                       @note This bit-field can not be modified as long as LOCK leve
 449:Drivers/STM32F4xx_HAL_Driver/Inc/stm32f4xx_ll_tim.h ****                                        programmed. */
 450:Drivers/STM32F4xx_HAL_Driver/Inc/stm32f4xx_ll_tim.h **** 
 451:Drivers/STM32F4xx_HAL_Driver/Inc/stm32f4xx_ll_tim.h ****   uint16_t BreakState;           /*!< Specifies whether the TIM Break input is enabled or not.
 452:Drivers/STM32F4xx_HAL_Driver/Inc/stm32f4xx_ll_tim.h ****                                       This parameter can be a value of @ref TIM_LL_EC_BREAK_ENABLE
 453:Drivers/STM32F4xx_HAL_Driver/Inc/stm32f4xx_ll_tim.h **** 
 454:Drivers/STM32F4xx_HAL_Driver/Inc/stm32f4xx_ll_tim.h ****                                       This feature can be modified afterwards using unitary functio
 455:Drivers/STM32F4xx_HAL_Driver/Inc/stm32f4xx_ll_tim.h ****                                       @ref LL_TIM_EnableBRK() or @ref LL_TIM_DisableBRK()
 456:Drivers/STM32F4xx_HAL_Driver/Inc/stm32f4xx_ll_tim.h **** 
 457:Drivers/STM32F4xx_HAL_Driver/Inc/stm32f4xx_ll_tim.h ****                                       @note This bit-field can not be modified as long as LOCK leve
 458:Drivers/STM32F4xx_HAL_Driver/Inc/stm32f4xx_ll_tim.h ****                                       programmed. */
 459:Drivers/STM32F4xx_HAL_Driver/Inc/stm32f4xx_ll_tim.h **** 
 460:Drivers/STM32F4xx_HAL_Driver/Inc/stm32f4xx_ll_tim.h ****   uint32_t BreakPolarity;        /*!< Specifies the TIM Break Input pin polarity.
 461:Drivers/STM32F4xx_HAL_Driver/Inc/stm32f4xx_ll_tim.h ****                                       This parameter can be a value of @ref TIM_LL_EC_BREAK_POLARIT
 462:Drivers/STM32F4xx_HAL_Driver/Inc/stm32f4xx_ll_tim.h **** 
ARM GAS  C:\Users\paulp\AppData\Local\Temp\cc1vPtHZ.s 			page 19


 463:Drivers/STM32F4xx_HAL_Driver/Inc/stm32f4xx_ll_tim.h ****                                       This feature can be modified afterwards using unitary functio
 464:Drivers/STM32F4xx_HAL_Driver/Inc/stm32f4xx_ll_tim.h ****                                       @ref LL_TIM_ConfigBRK()
 465:Drivers/STM32F4xx_HAL_Driver/Inc/stm32f4xx_ll_tim.h **** 
 466:Drivers/STM32F4xx_HAL_Driver/Inc/stm32f4xx_ll_tim.h ****                                       @note This bit-field can not be modified as long as LOCK leve
 467:Drivers/STM32F4xx_HAL_Driver/Inc/stm32f4xx_ll_tim.h ****                                       programmed. */
 468:Drivers/STM32F4xx_HAL_Driver/Inc/stm32f4xx_ll_tim.h **** 
 469:Drivers/STM32F4xx_HAL_Driver/Inc/stm32f4xx_ll_tim.h ****   uint32_t AutomaticOutput;      /*!< Specifies whether the TIM Automatic Output feature is enabled
 470:Drivers/STM32F4xx_HAL_Driver/Inc/stm32f4xx_ll_tim.h ****                                       This parameter can be a value of @ref TIM_LL_EC_AUTOMATICOUTP
 471:Drivers/STM32F4xx_HAL_Driver/Inc/stm32f4xx_ll_tim.h **** 
 472:Drivers/STM32F4xx_HAL_Driver/Inc/stm32f4xx_ll_tim.h ****                                       This feature can be modified afterwards using unitary functio
 473:Drivers/STM32F4xx_HAL_Driver/Inc/stm32f4xx_ll_tim.h ****                                       @ref LL_TIM_EnableAutomaticOutput() or @ref LL_TIM_DisableAut
 474:Drivers/STM32F4xx_HAL_Driver/Inc/stm32f4xx_ll_tim.h **** 
 475:Drivers/STM32F4xx_HAL_Driver/Inc/stm32f4xx_ll_tim.h ****                                       @note This bit-field can not be modified as long as LOCK leve
 476:Drivers/STM32F4xx_HAL_Driver/Inc/stm32f4xx_ll_tim.h ****                                       programmed. */
 477:Drivers/STM32F4xx_HAL_Driver/Inc/stm32f4xx_ll_tim.h **** } LL_TIM_BDTR_InitTypeDef;
 478:Drivers/STM32F4xx_HAL_Driver/Inc/stm32f4xx_ll_tim.h **** 
 479:Drivers/STM32F4xx_HAL_Driver/Inc/stm32f4xx_ll_tim.h **** /**
 480:Drivers/STM32F4xx_HAL_Driver/Inc/stm32f4xx_ll_tim.h ****   * @}
 481:Drivers/STM32F4xx_HAL_Driver/Inc/stm32f4xx_ll_tim.h ****   */
 482:Drivers/STM32F4xx_HAL_Driver/Inc/stm32f4xx_ll_tim.h **** #endif /* USE_FULL_LL_DRIVER */
 483:Drivers/STM32F4xx_HAL_Driver/Inc/stm32f4xx_ll_tim.h **** 
 484:Drivers/STM32F4xx_HAL_Driver/Inc/stm32f4xx_ll_tim.h **** /* Exported constants --------------------------------------------------------*/
 485:Drivers/STM32F4xx_HAL_Driver/Inc/stm32f4xx_ll_tim.h **** /** @defgroup TIM_LL_Exported_Constants TIM Exported Constants
 486:Drivers/STM32F4xx_HAL_Driver/Inc/stm32f4xx_ll_tim.h ****   * @{
 487:Drivers/STM32F4xx_HAL_Driver/Inc/stm32f4xx_ll_tim.h ****   */
 488:Drivers/STM32F4xx_HAL_Driver/Inc/stm32f4xx_ll_tim.h **** 
 489:Drivers/STM32F4xx_HAL_Driver/Inc/stm32f4xx_ll_tim.h **** /** @defgroup TIM_LL_EC_GET_FLAG Get Flags Defines
 490:Drivers/STM32F4xx_HAL_Driver/Inc/stm32f4xx_ll_tim.h ****   * @brief    Flags defines which can be used with LL_TIM_ReadReg function.
 491:Drivers/STM32F4xx_HAL_Driver/Inc/stm32f4xx_ll_tim.h ****   * @{
 492:Drivers/STM32F4xx_HAL_Driver/Inc/stm32f4xx_ll_tim.h ****   */
 493:Drivers/STM32F4xx_HAL_Driver/Inc/stm32f4xx_ll_tim.h **** #define LL_TIM_SR_UIF                          TIM_SR_UIF           /*!< Update interrupt flag */
 494:Drivers/STM32F4xx_HAL_Driver/Inc/stm32f4xx_ll_tim.h **** #define LL_TIM_SR_CC1IF                        TIM_SR_CC1IF         /*!< Capture/compare 1 interrup
 495:Drivers/STM32F4xx_HAL_Driver/Inc/stm32f4xx_ll_tim.h **** #define LL_TIM_SR_CC2IF                        TIM_SR_CC2IF         /*!< Capture/compare 2 interrup
 496:Drivers/STM32F4xx_HAL_Driver/Inc/stm32f4xx_ll_tim.h **** #define LL_TIM_SR_CC3IF                        TIM_SR_CC3IF         /*!< Capture/compare 3 interrup
 497:Drivers/STM32F4xx_HAL_Driver/Inc/stm32f4xx_ll_tim.h **** #define LL_TIM_SR_CC4IF                        TIM_SR_CC4IF         /*!< Capture/compare 4 interrup
 498:Drivers/STM32F4xx_HAL_Driver/Inc/stm32f4xx_ll_tim.h **** #define LL_TIM_SR_COMIF                        TIM_SR_COMIF         /*!< COM interrupt flag */
 499:Drivers/STM32F4xx_HAL_Driver/Inc/stm32f4xx_ll_tim.h **** #define LL_TIM_SR_TIF                          TIM_SR_TIF           /*!< Trigger interrupt flag */
 500:Drivers/STM32F4xx_HAL_Driver/Inc/stm32f4xx_ll_tim.h **** #define LL_TIM_SR_BIF                          TIM_SR_BIF           /*!< Break interrupt flag */
 501:Drivers/STM32F4xx_HAL_Driver/Inc/stm32f4xx_ll_tim.h **** #define LL_TIM_SR_CC1OF                        TIM_SR_CC1OF         /*!< Capture/Compare 1 overcapt
 502:Drivers/STM32F4xx_HAL_Driver/Inc/stm32f4xx_ll_tim.h **** #define LL_TIM_SR_CC2OF                        TIM_SR_CC2OF         /*!< Capture/Compare 2 overcapt
 503:Drivers/STM32F4xx_HAL_Driver/Inc/stm32f4xx_ll_tim.h **** #define LL_TIM_SR_CC3OF                        TIM_SR_CC3OF         /*!< Capture/Compare 3 overcapt
 504:Drivers/STM32F4xx_HAL_Driver/Inc/stm32f4xx_ll_tim.h **** #define LL_TIM_SR_CC4OF                        TIM_SR_CC4OF         /*!< Capture/Compare 4 overcapt
 505:Drivers/STM32F4xx_HAL_Driver/Inc/stm32f4xx_ll_tim.h **** /**
 506:Drivers/STM32F4xx_HAL_Driver/Inc/stm32f4xx_ll_tim.h ****   * @}
 507:Drivers/STM32F4xx_HAL_Driver/Inc/stm32f4xx_ll_tim.h ****   */
 508:Drivers/STM32F4xx_HAL_Driver/Inc/stm32f4xx_ll_tim.h **** 
 509:Drivers/STM32F4xx_HAL_Driver/Inc/stm32f4xx_ll_tim.h **** #if defined(USE_FULL_LL_DRIVER)
 510:Drivers/STM32F4xx_HAL_Driver/Inc/stm32f4xx_ll_tim.h **** /** @defgroup TIM_LL_EC_BREAK_ENABLE Break Enable
 511:Drivers/STM32F4xx_HAL_Driver/Inc/stm32f4xx_ll_tim.h ****   * @{
 512:Drivers/STM32F4xx_HAL_Driver/Inc/stm32f4xx_ll_tim.h ****   */
 513:Drivers/STM32F4xx_HAL_Driver/Inc/stm32f4xx_ll_tim.h **** #define LL_TIM_BREAK_DISABLE            0x00000000U             /*!< Break function disabled */
 514:Drivers/STM32F4xx_HAL_Driver/Inc/stm32f4xx_ll_tim.h **** #define LL_TIM_BREAK_ENABLE             TIM_BDTR_BKE            /*!< Break function enabled */
 515:Drivers/STM32F4xx_HAL_Driver/Inc/stm32f4xx_ll_tim.h **** /**
 516:Drivers/STM32F4xx_HAL_Driver/Inc/stm32f4xx_ll_tim.h ****   * @}
 517:Drivers/STM32F4xx_HAL_Driver/Inc/stm32f4xx_ll_tim.h ****   */
 518:Drivers/STM32F4xx_HAL_Driver/Inc/stm32f4xx_ll_tim.h **** 
 519:Drivers/STM32F4xx_HAL_Driver/Inc/stm32f4xx_ll_tim.h **** /** @defgroup TIM_LL_EC_AUTOMATICOUTPUT_ENABLE Automatic output enable
ARM GAS  C:\Users\paulp\AppData\Local\Temp\cc1vPtHZ.s 			page 20


 520:Drivers/STM32F4xx_HAL_Driver/Inc/stm32f4xx_ll_tim.h ****   * @{
 521:Drivers/STM32F4xx_HAL_Driver/Inc/stm32f4xx_ll_tim.h ****   */
 522:Drivers/STM32F4xx_HAL_Driver/Inc/stm32f4xx_ll_tim.h **** #define LL_TIM_AUTOMATICOUTPUT_DISABLE         0x00000000U             /*!< MOE can be set only by 
 523:Drivers/STM32F4xx_HAL_Driver/Inc/stm32f4xx_ll_tim.h **** #define LL_TIM_AUTOMATICOUTPUT_ENABLE          TIM_BDTR_AOE            /*!< MOE can be set by softw
 524:Drivers/STM32F4xx_HAL_Driver/Inc/stm32f4xx_ll_tim.h **** /**
 525:Drivers/STM32F4xx_HAL_Driver/Inc/stm32f4xx_ll_tim.h ****   * @}
 526:Drivers/STM32F4xx_HAL_Driver/Inc/stm32f4xx_ll_tim.h ****   */
 527:Drivers/STM32F4xx_HAL_Driver/Inc/stm32f4xx_ll_tim.h **** #endif /* USE_FULL_LL_DRIVER */
 528:Drivers/STM32F4xx_HAL_Driver/Inc/stm32f4xx_ll_tim.h **** 
 529:Drivers/STM32F4xx_HAL_Driver/Inc/stm32f4xx_ll_tim.h **** /** @defgroup TIM_LL_EC_IT IT Defines
 530:Drivers/STM32F4xx_HAL_Driver/Inc/stm32f4xx_ll_tim.h ****   * @brief    IT defines which can be used with LL_TIM_ReadReg and  LL_TIM_WriteReg functions.
 531:Drivers/STM32F4xx_HAL_Driver/Inc/stm32f4xx_ll_tim.h ****   * @{
 532:Drivers/STM32F4xx_HAL_Driver/Inc/stm32f4xx_ll_tim.h ****   */
 533:Drivers/STM32F4xx_HAL_Driver/Inc/stm32f4xx_ll_tim.h **** #define LL_TIM_DIER_UIE                        TIM_DIER_UIE         /*!< Update interrupt enable */
 534:Drivers/STM32F4xx_HAL_Driver/Inc/stm32f4xx_ll_tim.h **** #define LL_TIM_DIER_CC1IE                      TIM_DIER_CC1IE       /*!< Capture/compare 1 interrup
 535:Drivers/STM32F4xx_HAL_Driver/Inc/stm32f4xx_ll_tim.h **** #define LL_TIM_DIER_CC2IE                      TIM_DIER_CC2IE       /*!< Capture/compare 2 interrup
 536:Drivers/STM32F4xx_HAL_Driver/Inc/stm32f4xx_ll_tim.h **** #define LL_TIM_DIER_CC3IE                      TIM_DIER_CC3IE       /*!< Capture/compare 3 interrup
 537:Drivers/STM32F4xx_HAL_Driver/Inc/stm32f4xx_ll_tim.h **** #define LL_TIM_DIER_CC4IE                      TIM_DIER_CC4IE       /*!< Capture/compare 4 interrup
 538:Drivers/STM32F4xx_HAL_Driver/Inc/stm32f4xx_ll_tim.h **** #define LL_TIM_DIER_COMIE                      TIM_DIER_COMIE       /*!< COM interrupt enable */
 539:Drivers/STM32F4xx_HAL_Driver/Inc/stm32f4xx_ll_tim.h **** #define LL_TIM_DIER_TIE                        TIM_DIER_TIE         /*!< Trigger interrupt enable *
 540:Drivers/STM32F4xx_HAL_Driver/Inc/stm32f4xx_ll_tim.h **** #define LL_TIM_DIER_BIE                        TIM_DIER_BIE         /*!< Break interrupt enable */
 541:Drivers/STM32F4xx_HAL_Driver/Inc/stm32f4xx_ll_tim.h **** /**
 542:Drivers/STM32F4xx_HAL_Driver/Inc/stm32f4xx_ll_tim.h ****   * @}
 543:Drivers/STM32F4xx_HAL_Driver/Inc/stm32f4xx_ll_tim.h ****   */
 544:Drivers/STM32F4xx_HAL_Driver/Inc/stm32f4xx_ll_tim.h **** 
 545:Drivers/STM32F4xx_HAL_Driver/Inc/stm32f4xx_ll_tim.h **** /** @defgroup TIM_LL_EC_UPDATESOURCE Update Source
 546:Drivers/STM32F4xx_HAL_Driver/Inc/stm32f4xx_ll_tim.h ****   * @{
 547:Drivers/STM32F4xx_HAL_Driver/Inc/stm32f4xx_ll_tim.h ****   */
 548:Drivers/STM32F4xx_HAL_Driver/Inc/stm32f4xx_ll_tim.h **** #define LL_TIM_UPDATESOURCE_REGULAR            0x00000000U          /*!< Counter overflow/underflow
 549:Drivers/STM32F4xx_HAL_Driver/Inc/stm32f4xx_ll_tim.h **** #define LL_TIM_UPDATESOURCE_COUNTER            TIM_CR1_URS          /*!< Only counter overflow/unde
 550:Drivers/STM32F4xx_HAL_Driver/Inc/stm32f4xx_ll_tim.h **** /**
 551:Drivers/STM32F4xx_HAL_Driver/Inc/stm32f4xx_ll_tim.h ****   * @}
 552:Drivers/STM32F4xx_HAL_Driver/Inc/stm32f4xx_ll_tim.h ****   */
 553:Drivers/STM32F4xx_HAL_Driver/Inc/stm32f4xx_ll_tim.h **** 
 554:Drivers/STM32F4xx_HAL_Driver/Inc/stm32f4xx_ll_tim.h **** /** @defgroup TIM_LL_EC_ONEPULSEMODE One Pulse Mode
 555:Drivers/STM32F4xx_HAL_Driver/Inc/stm32f4xx_ll_tim.h ****   * @{
 556:Drivers/STM32F4xx_HAL_Driver/Inc/stm32f4xx_ll_tim.h ****   */
 557:Drivers/STM32F4xx_HAL_Driver/Inc/stm32f4xx_ll_tim.h **** #define LL_TIM_ONEPULSEMODE_SINGLE             TIM_CR1_OPM          /*!< Counter stops counting at 
 558:Drivers/STM32F4xx_HAL_Driver/Inc/stm32f4xx_ll_tim.h **** #define LL_TIM_ONEPULSEMODE_REPETITIVE         0x00000000U          /*!< Counter is not stopped at 
 559:Drivers/STM32F4xx_HAL_Driver/Inc/stm32f4xx_ll_tim.h **** /**
 560:Drivers/STM32F4xx_HAL_Driver/Inc/stm32f4xx_ll_tim.h ****   * @}
 561:Drivers/STM32F4xx_HAL_Driver/Inc/stm32f4xx_ll_tim.h ****   */
 562:Drivers/STM32F4xx_HAL_Driver/Inc/stm32f4xx_ll_tim.h **** 
 563:Drivers/STM32F4xx_HAL_Driver/Inc/stm32f4xx_ll_tim.h **** /** @defgroup TIM_LL_EC_COUNTERMODE Counter Mode
 564:Drivers/STM32F4xx_HAL_Driver/Inc/stm32f4xx_ll_tim.h ****   * @{
 565:Drivers/STM32F4xx_HAL_Driver/Inc/stm32f4xx_ll_tim.h ****   */
 566:Drivers/STM32F4xx_HAL_Driver/Inc/stm32f4xx_ll_tim.h **** #define LL_TIM_COUNTERMODE_UP                  0x00000000U          /*!<Counter used as upcounter *
 567:Drivers/STM32F4xx_HAL_Driver/Inc/stm32f4xx_ll_tim.h **** #define LL_TIM_COUNTERMODE_DOWN                TIM_CR1_DIR          /*!< Counter used as downcounte
 568:Drivers/STM32F4xx_HAL_Driver/Inc/stm32f4xx_ll_tim.h **** #define LL_TIM_COUNTERMODE_CENTER_DOWN         TIM_CR1_CMS_0        /*!< The counter counts up and 
 569:Drivers/STM32F4xx_HAL_Driver/Inc/stm32f4xx_ll_tim.h **** #define LL_TIM_COUNTERMODE_CENTER_UP           TIM_CR1_CMS_1        /*!<The counter counts up and d
 570:Drivers/STM32F4xx_HAL_Driver/Inc/stm32f4xx_ll_tim.h **** #define LL_TIM_COUNTERMODE_CENTER_UP_DOWN      TIM_CR1_CMS          /*!< The counter counts up and 
 571:Drivers/STM32F4xx_HAL_Driver/Inc/stm32f4xx_ll_tim.h **** /**
 572:Drivers/STM32F4xx_HAL_Driver/Inc/stm32f4xx_ll_tim.h ****   * @}
 573:Drivers/STM32F4xx_HAL_Driver/Inc/stm32f4xx_ll_tim.h ****   */
 574:Drivers/STM32F4xx_HAL_Driver/Inc/stm32f4xx_ll_tim.h **** 
 575:Drivers/STM32F4xx_HAL_Driver/Inc/stm32f4xx_ll_tim.h **** /** @defgroup TIM_LL_EC_CLOCKDIVISION Clock Division
 576:Drivers/STM32F4xx_HAL_Driver/Inc/stm32f4xx_ll_tim.h ****   * @{
ARM GAS  C:\Users\paulp\AppData\Local\Temp\cc1vPtHZ.s 			page 21


 577:Drivers/STM32F4xx_HAL_Driver/Inc/stm32f4xx_ll_tim.h ****   */
 578:Drivers/STM32F4xx_HAL_Driver/Inc/stm32f4xx_ll_tim.h **** #define LL_TIM_CLOCKDIVISION_DIV1              0x00000000U          /*!< tDTS=tCK_INT */
 579:Drivers/STM32F4xx_HAL_Driver/Inc/stm32f4xx_ll_tim.h **** #define LL_TIM_CLOCKDIVISION_DIV2              TIM_CR1_CKD_0        /*!< tDTS=2*tCK_INT */
 580:Drivers/STM32F4xx_HAL_Driver/Inc/stm32f4xx_ll_tim.h **** #define LL_TIM_CLOCKDIVISION_DIV4              TIM_CR1_CKD_1        /*!< tDTS=4*tCK_INT */
 581:Drivers/STM32F4xx_HAL_Driver/Inc/stm32f4xx_ll_tim.h **** /**
 582:Drivers/STM32F4xx_HAL_Driver/Inc/stm32f4xx_ll_tim.h ****   * @}
 583:Drivers/STM32F4xx_HAL_Driver/Inc/stm32f4xx_ll_tim.h ****   */
 584:Drivers/STM32F4xx_HAL_Driver/Inc/stm32f4xx_ll_tim.h **** 
 585:Drivers/STM32F4xx_HAL_Driver/Inc/stm32f4xx_ll_tim.h **** /** @defgroup TIM_LL_EC_COUNTERDIRECTION Counter Direction
 586:Drivers/STM32F4xx_HAL_Driver/Inc/stm32f4xx_ll_tim.h ****   * @{
 587:Drivers/STM32F4xx_HAL_Driver/Inc/stm32f4xx_ll_tim.h ****   */
 588:Drivers/STM32F4xx_HAL_Driver/Inc/stm32f4xx_ll_tim.h **** #define LL_TIM_COUNTERDIRECTION_UP             0x00000000U          /*!< Timer counter counts up */
 589:Drivers/STM32F4xx_HAL_Driver/Inc/stm32f4xx_ll_tim.h **** #define LL_TIM_COUNTERDIRECTION_DOWN           TIM_CR1_DIR          /*!< Timer counter counts down 
 590:Drivers/STM32F4xx_HAL_Driver/Inc/stm32f4xx_ll_tim.h **** /**
 591:Drivers/STM32F4xx_HAL_Driver/Inc/stm32f4xx_ll_tim.h ****   * @}
 592:Drivers/STM32F4xx_HAL_Driver/Inc/stm32f4xx_ll_tim.h ****   */
 593:Drivers/STM32F4xx_HAL_Driver/Inc/stm32f4xx_ll_tim.h **** 
 594:Drivers/STM32F4xx_HAL_Driver/Inc/stm32f4xx_ll_tim.h **** /** @defgroup TIM_LL_EC_CCUPDATESOURCE Capture Compare  Update Source
 595:Drivers/STM32F4xx_HAL_Driver/Inc/stm32f4xx_ll_tim.h ****   * @{
 596:Drivers/STM32F4xx_HAL_Driver/Inc/stm32f4xx_ll_tim.h ****   */
 597:Drivers/STM32F4xx_HAL_Driver/Inc/stm32f4xx_ll_tim.h **** #define LL_TIM_CCUPDATESOURCE_COMG_ONLY        0x00000000U          /*!< Capture/compare control bi
 598:Drivers/STM32F4xx_HAL_Driver/Inc/stm32f4xx_ll_tim.h **** #define LL_TIM_CCUPDATESOURCE_COMG_AND_TRGI    TIM_CR2_CCUS         /*!< Capture/compare control bi
 599:Drivers/STM32F4xx_HAL_Driver/Inc/stm32f4xx_ll_tim.h **** /**
 600:Drivers/STM32F4xx_HAL_Driver/Inc/stm32f4xx_ll_tim.h ****   * @}
 601:Drivers/STM32F4xx_HAL_Driver/Inc/stm32f4xx_ll_tim.h ****   */
 602:Drivers/STM32F4xx_HAL_Driver/Inc/stm32f4xx_ll_tim.h **** 
 603:Drivers/STM32F4xx_HAL_Driver/Inc/stm32f4xx_ll_tim.h **** /** @defgroup TIM_LL_EC_CCDMAREQUEST Capture Compare DMA Request
 604:Drivers/STM32F4xx_HAL_Driver/Inc/stm32f4xx_ll_tim.h ****   * @{
 605:Drivers/STM32F4xx_HAL_Driver/Inc/stm32f4xx_ll_tim.h ****   */
 606:Drivers/STM32F4xx_HAL_Driver/Inc/stm32f4xx_ll_tim.h **** #define LL_TIM_CCDMAREQUEST_CC                 0x00000000U          /*!< CCx DMA request sent when 
 607:Drivers/STM32F4xx_HAL_Driver/Inc/stm32f4xx_ll_tim.h **** #define LL_TIM_CCDMAREQUEST_UPDATE             TIM_CR2_CCDS         /*!< CCx DMA requests sent when
 608:Drivers/STM32F4xx_HAL_Driver/Inc/stm32f4xx_ll_tim.h **** /**
 609:Drivers/STM32F4xx_HAL_Driver/Inc/stm32f4xx_ll_tim.h ****   * @}
 610:Drivers/STM32F4xx_HAL_Driver/Inc/stm32f4xx_ll_tim.h ****   */
 611:Drivers/STM32F4xx_HAL_Driver/Inc/stm32f4xx_ll_tim.h **** 
 612:Drivers/STM32F4xx_HAL_Driver/Inc/stm32f4xx_ll_tim.h **** /** @defgroup TIM_LL_EC_LOCKLEVEL Lock Level
 613:Drivers/STM32F4xx_HAL_Driver/Inc/stm32f4xx_ll_tim.h ****   * @{
 614:Drivers/STM32F4xx_HAL_Driver/Inc/stm32f4xx_ll_tim.h ****   */
 615:Drivers/STM32F4xx_HAL_Driver/Inc/stm32f4xx_ll_tim.h **** #define LL_TIM_LOCKLEVEL_OFF                   0x00000000U          /*!< LOCK OFF - No bit is write
 616:Drivers/STM32F4xx_HAL_Driver/Inc/stm32f4xx_ll_tim.h **** #define LL_TIM_LOCKLEVEL_1                     TIM_BDTR_LOCK_0      /*!< LOCK Level 1 */
 617:Drivers/STM32F4xx_HAL_Driver/Inc/stm32f4xx_ll_tim.h **** #define LL_TIM_LOCKLEVEL_2                     TIM_BDTR_LOCK_1      /*!< LOCK Level 2 */
 618:Drivers/STM32F4xx_HAL_Driver/Inc/stm32f4xx_ll_tim.h **** #define LL_TIM_LOCKLEVEL_3                     TIM_BDTR_LOCK        /*!< LOCK Level 3 */
 619:Drivers/STM32F4xx_HAL_Driver/Inc/stm32f4xx_ll_tim.h **** /**
 620:Drivers/STM32F4xx_HAL_Driver/Inc/stm32f4xx_ll_tim.h ****   * @}
 621:Drivers/STM32F4xx_HAL_Driver/Inc/stm32f4xx_ll_tim.h ****   */
 622:Drivers/STM32F4xx_HAL_Driver/Inc/stm32f4xx_ll_tim.h **** 
 623:Drivers/STM32F4xx_HAL_Driver/Inc/stm32f4xx_ll_tim.h **** /** @defgroup TIM_LL_EC_CHANNEL Channel
 624:Drivers/STM32F4xx_HAL_Driver/Inc/stm32f4xx_ll_tim.h ****   * @{
 625:Drivers/STM32F4xx_HAL_Driver/Inc/stm32f4xx_ll_tim.h ****   */
 626:Drivers/STM32F4xx_HAL_Driver/Inc/stm32f4xx_ll_tim.h **** #define LL_TIM_CHANNEL_CH1                     TIM_CCER_CC1E     /*!< Timer input/output channel 1 
 627:Drivers/STM32F4xx_HAL_Driver/Inc/stm32f4xx_ll_tim.h **** #define LL_TIM_CHANNEL_CH1N                    TIM_CCER_CC1NE    /*!< Timer complementary output ch
 628:Drivers/STM32F4xx_HAL_Driver/Inc/stm32f4xx_ll_tim.h **** #define LL_TIM_CHANNEL_CH2                     TIM_CCER_CC2E     /*!< Timer input/output channel 2 
 629:Drivers/STM32F4xx_HAL_Driver/Inc/stm32f4xx_ll_tim.h **** #define LL_TIM_CHANNEL_CH2N                    TIM_CCER_CC2NE    /*!< Timer complementary output ch
 630:Drivers/STM32F4xx_HAL_Driver/Inc/stm32f4xx_ll_tim.h **** #define LL_TIM_CHANNEL_CH3                     TIM_CCER_CC3E     /*!< Timer input/output channel 3 
 631:Drivers/STM32F4xx_HAL_Driver/Inc/stm32f4xx_ll_tim.h **** #define LL_TIM_CHANNEL_CH3N                    TIM_CCER_CC3NE    /*!< Timer complementary output ch
 632:Drivers/STM32F4xx_HAL_Driver/Inc/stm32f4xx_ll_tim.h **** #define LL_TIM_CHANNEL_CH4                     TIM_CCER_CC4E     /*!< Timer input/output channel 4 
 633:Drivers/STM32F4xx_HAL_Driver/Inc/stm32f4xx_ll_tim.h **** /**
ARM GAS  C:\Users\paulp\AppData\Local\Temp\cc1vPtHZ.s 			page 22


 634:Drivers/STM32F4xx_HAL_Driver/Inc/stm32f4xx_ll_tim.h ****   * @}
 635:Drivers/STM32F4xx_HAL_Driver/Inc/stm32f4xx_ll_tim.h ****   */
 636:Drivers/STM32F4xx_HAL_Driver/Inc/stm32f4xx_ll_tim.h **** 
 637:Drivers/STM32F4xx_HAL_Driver/Inc/stm32f4xx_ll_tim.h **** #if defined(USE_FULL_LL_DRIVER)
 638:Drivers/STM32F4xx_HAL_Driver/Inc/stm32f4xx_ll_tim.h **** /** @defgroup TIM_LL_EC_OCSTATE Output Configuration State
 639:Drivers/STM32F4xx_HAL_Driver/Inc/stm32f4xx_ll_tim.h ****   * @{
 640:Drivers/STM32F4xx_HAL_Driver/Inc/stm32f4xx_ll_tim.h ****   */
 641:Drivers/STM32F4xx_HAL_Driver/Inc/stm32f4xx_ll_tim.h **** #define LL_TIM_OCSTATE_DISABLE                 0x00000000U             /*!< OCx is not active */
 642:Drivers/STM32F4xx_HAL_Driver/Inc/stm32f4xx_ll_tim.h **** #define LL_TIM_OCSTATE_ENABLE                  TIM_CCER_CC1E           /*!< OCx signal is output on
 643:Drivers/STM32F4xx_HAL_Driver/Inc/stm32f4xx_ll_tim.h **** /**
 644:Drivers/STM32F4xx_HAL_Driver/Inc/stm32f4xx_ll_tim.h ****   * @}
 645:Drivers/STM32F4xx_HAL_Driver/Inc/stm32f4xx_ll_tim.h ****   */
 646:Drivers/STM32F4xx_HAL_Driver/Inc/stm32f4xx_ll_tim.h **** #endif /* USE_FULL_LL_DRIVER */
 647:Drivers/STM32F4xx_HAL_Driver/Inc/stm32f4xx_ll_tim.h **** 
 648:Drivers/STM32F4xx_HAL_Driver/Inc/stm32f4xx_ll_tim.h **** /** @defgroup TIM_LL_EC_OCMODE Output Configuration Mode
 649:Drivers/STM32F4xx_HAL_Driver/Inc/stm32f4xx_ll_tim.h ****   * @{
 650:Drivers/STM32F4xx_HAL_Driver/Inc/stm32f4xx_ll_tim.h ****   */
 651:Drivers/STM32F4xx_HAL_Driver/Inc/stm32f4xx_ll_tim.h **** #define LL_TIM_OCMODE_FROZEN                   0x00000000U                                         
 652:Drivers/STM32F4xx_HAL_Driver/Inc/stm32f4xx_ll_tim.h **** #define LL_TIM_OCMODE_ACTIVE                   TIM_CCMR1_OC1M_0                                    
 653:Drivers/STM32F4xx_HAL_Driver/Inc/stm32f4xx_ll_tim.h **** #define LL_TIM_OCMODE_INACTIVE                 TIM_CCMR1_OC1M_1                                    
 654:Drivers/STM32F4xx_HAL_Driver/Inc/stm32f4xx_ll_tim.h **** #define LL_TIM_OCMODE_TOGGLE                   (TIM_CCMR1_OC1M_1 | TIM_CCMR1_OC1M_0)               
 655:Drivers/STM32F4xx_HAL_Driver/Inc/stm32f4xx_ll_tim.h **** #define LL_TIM_OCMODE_FORCED_INACTIVE          TIM_CCMR1_OC1M_2                                    
 656:Drivers/STM32F4xx_HAL_Driver/Inc/stm32f4xx_ll_tim.h **** #define LL_TIM_OCMODE_FORCED_ACTIVE            (TIM_CCMR1_OC1M_2 | TIM_CCMR1_OC1M_0)               
 657:Drivers/STM32F4xx_HAL_Driver/Inc/stm32f4xx_ll_tim.h **** #define LL_TIM_OCMODE_PWM1                     (TIM_CCMR1_OC1M_2 | TIM_CCMR1_OC1M_1)               
 658:Drivers/STM32F4xx_HAL_Driver/Inc/stm32f4xx_ll_tim.h **** #define LL_TIM_OCMODE_PWM2                     (TIM_CCMR1_OC1M_2 | TIM_CCMR1_OC1M_1 | TIM_CCMR1_OC1
 659:Drivers/STM32F4xx_HAL_Driver/Inc/stm32f4xx_ll_tim.h **** /**
 660:Drivers/STM32F4xx_HAL_Driver/Inc/stm32f4xx_ll_tim.h ****   * @}
 661:Drivers/STM32F4xx_HAL_Driver/Inc/stm32f4xx_ll_tim.h ****   */
 662:Drivers/STM32F4xx_HAL_Driver/Inc/stm32f4xx_ll_tim.h **** 
 663:Drivers/STM32F4xx_HAL_Driver/Inc/stm32f4xx_ll_tim.h **** /** @defgroup TIM_LL_EC_OCPOLARITY Output Configuration Polarity
 664:Drivers/STM32F4xx_HAL_Driver/Inc/stm32f4xx_ll_tim.h ****   * @{
 665:Drivers/STM32F4xx_HAL_Driver/Inc/stm32f4xx_ll_tim.h ****   */
 666:Drivers/STM32F4xx_HAL_Driver/Inc/stm32f4xx_ll_tim.h **** #define LL_TIM_OCPOLARITY_HIGH                 0x00000000U                 /*!< OCxactive high*/
 667:Drivers/STM32F4xx_HAL_Driver/Inc/stm32f4xx_ll_tim.h **** #define LL_TIM_OCPOLARITY_LOW                  TIM_CCER_CC1P               /*!< OCxactive low*/
 668:Drivers/STM32F4xx_HAL_Driver/Inc/stm32f4xx_ll_tim.h **** /**
 669:Drivers/STM32F4xx_HAL_Driver/Inc/stm32f4xx_ll_tim.h ****   * @}
 670:Drivers/STM32F4xx_HAL_Driver/Inc/stm32f4xx_ll_tim.h ****   */
 671:Drivers/STM32F4xx_HAL_Driver/Inc/stm32f4xx_ll_tim.h **** 
 672:Drivers/STM32F4xx_HAL_Driver/Inc/stm32f4xx_ll_tim.h **** /** @defgroup TIM_LL_EC_OCIDLESTATE Output Configuration Idle State
 673:Drivers/STM32F4xx_HAL_Driver/Inc/stm32f4xx_ll_tim.h ****   * @{
 674:Drivers/STM32F4xx_HAL_Driver/Inc/stm32f4xx_ll_tim.h ****   */
 675:Drivers/STM32F4xx_HAL_Driver/Inc/stm32f4xx_ll_tim.h **** #define LL_TIM_OCIDLESTATE_LOW                 0x00000000U             /*!<OCx=0 (after a dead-time
 676:Drivers/STM32F4xx_HAL_Driver/Inc/stm32f4xx_ll_tim.h **** #define LL_TIM_OCIDLESTATE_HIGH                TIM_CR2_OIS1            /*!<OCx=1 (after a dead-time
 677:Drivers/STM32F4xx_HAL_Driver/Inc/stm32f4xx_ll_tim.h **** /**
 678:Drivers/STM32F4xx_HAL_Driver/Inc/stm32f4xx_ll_tim.h ****   * @}
 679:Drivers/STM32F4xx_HAL_Driver/Inc/stm32f4xx_ll_tim.h ****   */
 680:Drivers/STM32F4xx_HAL_Driver/Inc/stm32f4xx_ll_tim.h **** 
 681:Drivers/STM32F4xx_HAL_Driver/Inc/stm32f4xx_ll_tim.h **** 
 682:Drivers/STM32F4xx_HAL_Driver/Inc/stm32f4xx_ll_tim.h **** /** @defgroup TIM_LL_EC_ACTIVEINPUT Active Input Selection
 683:Drivers/STM32F4xx_HAL_Driver/Inc/stm32f4xx_ll_tim.h ****   * @{
 684:Drivers/STM32F4xx_HAL_Driver/Inc/stm32f4xx_ll_tim.h ****   */
 685:Drivers/STM32F4xx_HAL_Driver/Inc/stm32f4xx_ll_tim.h **** #define LL_TIM_ACTIVEINPUT_DIRECTTI            (TIM_CCMR1_CC1S_0 << 16U) /*!< ICx is mapped on TIx 
 686:Drivers/STM32F4xx_HAL_Driver/Inc/stm32f4xx_ll_tim.h **** #define LL_TIM_ACTIVEINPUT_INDIRECTTI          (TIM_CCMR1_CC1S_1 << 16U) /*!< ICx is mapped on TIy 
 687:Drivers/STM32F4xx_HAL_Driver/Inc/stm32f4xx_ll_tim.h **** #define LL_TIM_ACTIVEINPUT_TRC                 (TIM_CCMR1_CC1S << 16U)   /*!< ICx is mapped on TRC 
 688:Drivers/STM32F4xx_HAL_Driver/Inc/stm32f4xx_ll_tim.h **** /**
 689:Drivers/STM32F4xx_HAL_Driver/Inc/stm32f4xx_ll_tim.h ****   * @}
 690:Drivers/STM32F4xx_HAL_Driver/Inc/stm32f4xx_ll_tim.h ****   */
ARM GAS  C:\Users\paulp\AppData\Local\Temp\cc1vPtHZ.s 			page 23


 691:Drivers/STM32F4xx_HAL_Driver/Inc/stm32f4xx_ll_tim.h **** 
 692:Drivers/STM32F4xx_HAL_Driver/Inc/stm32f4xx_ll_tim.h **** /** @defgroup TIM_LL_EC_ICPSC Input Configuration Prescaler
 693:Drivers/STM32F4xx_HAL_Driver/Inc/stm32f4xx_ll_tim.h ****   * @{
 694:Drivers/STM32F4xx_HAL_Driver/Inc/stm32f4xx_ll_tim.h ****   */
 695:Drivers/STM32F4xx_HAL_Driver/Inc/stm32f4xx_ll_tim.h **** #define LL_TIM_ICPSC_DIV1                      0x00000000U                    /*!< No prescaler, ca
 696:Drivers/STM32F4xx_HAL_Driver/Inc/stm32f4xx_ll_tim.h **** #define LL_TIM_ICPSC_DIV2                      (TIM_CCMR1_IC1PSC_0 << 16U)    /*!< Capture is done 
 697:Drivers/STM32F4xx_HAL_Driver/Inc/stm32f4xx_ll_tim.h **** #define LL_TIM_ICPSC_DIV4                      (TIM_CCMR1_IC1PSC_1 << 16U)    /*!< Capture is done 
 698:Drivers/STM32F4xx_HAL_Driver/Inc/stm32f4xx_ll_tim.h **** #define LL_TIM_ICPSC_DIV8                      (TIM_CCMR1_IC1PSC << 16U)      /*!< Capture is done 
 699:Drivers/STM32F4xx_HAL_Driver/Inc/stm32f4xx_ll_tim.h **** /**
 700:Drivers/STM32F4xx_HAL_Driver/Inc/stm32f4xx_ll_tim.h ****   * @}
 701:Drivers/STM32F4xx_HAL_Driver/Inc/stm32f4xx_ll_tim.h ****   */
 702:Drivers/STM32F4xx_HAL_Driver/Inc/stm32f4xx_ll_tim.h **** 
 703:Drivers/STM32F4xx_HAL_Driver/Inc/stm32f4xx_ll_tim.h **** /** @defgroup TIM_LL_EC_IC_FILTER Input Configuration Filter
 704:Drivers/STM32F4xx_HAL_Driver/Inc/stm32f4xx_ll_tim.h ****   * @{
 705:Drivers/STM32F4xx_HAL_Driver/Inc/stm32f4xx_ll_tim.h ****   */
 706:Drivers/STM32F4xx_HAL_Driver/Inc/stm32f4xx_ll_tim.h **** #define LL_TIM_IC_FILTER_FDIV1                 0x00000000U                                         
 707:Drivers/STM32F4xx_HAL_Driver/Inc/stm32f4xx_ll_tim.h **** #define LL_TIM_IC_FILTER_FDIV1_N2              (TIM_CCMR1_IC1F_0 << 16U)                           
 708:Drivers/STM32F4xx_HAL_Driver/Inc/stm32f4xx_ll_tim.h **** #define LL_TIM_IC_FILTER_FDIV1_N4              (TIM_CCMR1_IC1F_1 << 16U)                           
 709:Drivers/STM32F4xx_HAL_Driver/Inc/stm32f4xx_ll_tim.h **** #define LL_TIM_IC_FILTER_FDIV1_N8              ((TIM_CCMR1_IC1F_1 | TIM_CCMR1_IC1F_0) << 16U)      
 710:Drivers/STM32F4xx_HAL_Driver/Inc/stm32f4xx_ll_tim.h **** #define LL_TIM_IC_FILTER_FDIV2_N6              (TIM_CCMR1_IC1F_2 << 16U)                           
 711:Drivers/STM32F4xx_HAL_Driver/Inc/stm32f4xx_ll_tim.h **** #define LL_TIM_IC_FILTER_FDIV2_N8              ((TIM_CCMR1_IC1F_2 | TIM_CCMR1_IC1F_0) << 16U)      
 712:Drivers/STM32F4xx_HAL_Driver/Inc/stm32f4xx_ll_tim.h **** #define LL_TIM_IC_FILTER_FDIV4_N6              ((TIM_CCMR1_IC1F_2 | TIM_CCMR1_IC1F_1) << 16U)      
 713:Drivers/STM32F4xx_HAL_Driver/Inc/stm32f4xx_ll_tim.h **** #define LL_TIM_IC_FILTER_FDIV4_N8              ((TIM_CCMR1_IC1F_2 | TIM_CCMR1_IC1F_1 | TIM_CCMR1_IC
 714:Drivers/STM32F4xx_HAL_Driver/Inc/stm32f4xx_ll_tim.h **** #define LL_TIM_IC_FILTER_FDIV8_N6              (TIM_CCMR1_IC1F_3 << 16U)                           
 715:Drivers/STM32F4xx_HAL_Driver/Inc/stm32f4xx_ll_tim.h **** #define LL_TIM_IC_FILTER_FDIV8_N8              ((TIM_CCMR1_IC1F_3 | TIM_CCMR1_IC1F_0) << 16U)      
 716:Drivers/STM32F4xx_HAL_Driver/Inc/stm32f4xx_ll_tim.h **** #define LL_TIM_IC_FILTER_FDIV16_N5             ((TIM_CCMR1_IC1F_3 | TIM_CCMR1_IC1F_1) << 16U)      
 717:Drivers/STM32F4xx_HAL_Driver/Inc/stm32f4xx_ll_tim.h **** #define LL_TIM_IC_FILTER_FDIV16_N6             ((TIM_CCMR1_IC1F_3 | TIM_CCMR1_IC1F_1 | TIM_CCMR1_IC
 718:Drivers/STM32F4xx_HAL_Driver/Inc/stm32f4xx_ll_tim.h **** #define LL_TIM_IC_FILTER_FDIV16_N8             ((TIM_CCMR1_IC1F_3 | TIM_CCMR1_IC1F_2) << 16U)      
 719:Drivers/STM32F4xx_HAL_Driver/Inc/stm32f4xx_ll_tim.h **** #define LL_TIM_IC_FILTER_FDIV32_N5             ((TIM_CCMR1_IC1F_3 | TIM_CCMR1_IC1F_2 | TIM_CCMR1_IC
 720:Drivers/STM32F4xx_HAL_Driver/Inc/stm32f4xx_ll_tim.h **** #define LL_TIM_IC_FILTER_FDIV32_N6             ((TIM_CCMR1_IC1F_3 | TIM_CCMR1_IC1F_2 | TIM_CCMR1_IC
 721:Drivers/STM32F4xx_HAL_Driver/Inc/stm32f4xx_ll_tim.h **** #define LL_TIM_IC_FILTER_FDIV32_N8             (TIM_CCMR1_IC1F << 16U)                             
 722:Drivers/STM32F4xx_HAL_Driver/Inc/stm32f4xx_ll_tim.h **** /**
 723:Drivers/STM32F4xx_HAL_Driver/Inc/stm32f4xx_ll_tim.h ****   * @}
 724:Drivers/STM32F4xx_HAL_Driver/Inc/stm32f4xx_ll_tim.h ****   */
 725:Drivers/STM32F4xx_HAL_Driver/Inc/stm32f4xx_ll_tim.h **** 
 726:Drivers/STM32F4xx_HAL_Driver/Inc/stm32f4xx_ll_tim.h **** /** @defgroup TIM_LL_EC_IC_POLARITY Input Configuration Polarity
 727:Drivers/STM32F4xx_HAL_Driver/Inc/stm32f4xx_ll_tim.h ****   * @{
 728:Drivers/STM32F4xx_HAL_Driver/Inc/stm32f4xx_ll_tim.h ****   */
 729:Drivers/STM32F4xx_HAL_Driver/Inc/stm32f4xx_ll_tim.h **** #define LL_TIM_IC_POLARITY_RISING              0x00000000U                      /*!< The circuit is
 730:Drivers/STM32F4xx_HAL_Driver/Inc/stm32f4xx_ll_tim.h **** #define LL_TIM_IC_POLARITY_FALLING             TIM_CCER_CC1P                    /*!< The circuit is
 731:Drivers/STM32F4xx_HAL_Driver/Inc/stm32f4xx_ll_tim.h **** #define LL_TIM_IC_POLARITY_BOTHEDGE            (TIM_CCER_CC1P | TIM_CCER_CC1NP) /*!< The circuit is
 732:Drivers/STM32F4xx_HAL_Driver/Inc/stm32f4xx_ll_tim.h **** /**
 733:Drivers/STM32F4xx_HAL_Driver/Inc/stm32f4xx_ll_tim.h ****   * @}
 734:Drivers/STM32F4xx_HAL_Driver/Inc/stm32f4xx_ll_tim.h ****   */
 735:Drivers/STM32F4xx_HAL_Driver/Inc/stm32f4xx_ll_tim.h **** 
 736:Drivers/STM32F4xx_HAL_Driver/Inc/stm32f4xx_ll_tim.h **** /** @defgroup TIM_LL_EC_CLOCKSOURCE Clock Source
 737:Drivers/STM32F4xx_HAL_Driver/Inc/stm32f4xx_ll_tim.h ****   * @{
 738:Drivers/STM32F4xx_HAL_Driver/Inc/stm32f4xx_ll_tim.h ****   */
 739:Drivers/STM32F4xx_HAL_Driver/Inc/stm32f4xx_ll_tim.h **** #define LL_TIM_CLOCKSOURCE_INTERNAL            0x00000000U                                         
 740:Drivers/STM32F4xx_HAL_Driver/Inc/stm32f4xx_ll_tim.h **** #define LL_TIM_CLOCKSOURCE_EXT_MODE1           (TIM_SMCR_SMS_2 | TIM_SMCR_SMS_1 | TIM_SMCR_SMS_0)  
 741:Drivers/STM32F4xx_HAL_Driver/Inc/stm32f4xx_ll_tim.h **** #define LL_TIM_CLOCKSOURCE_EXT_MODE2           TIM_SMCR_ECE                                        
 742:Drivers/STM32F4xx_HAL_Driver/Inc/stm32f4xx_ll_tim.h **** /**
 743:Drivers/STM32F4xx_HAL_Driver/Inc/stm32f4xx_ll_tim.h ****   * @}
 744:Drivers/STM32F4xx_HAL_Driver/Inc/stm32f4xx_ll_tim.h ****   */
 745:Drivers/STM32F4xx_HAL_Driver/Inc/stm32f4xx_ll_tim.h **** 
 746:Drivers/STM32F4xx_HAL_Driver/Inc/stm32f4xx_ll_tim.h **** /** @defgroup TIM_LL_EC_ENCODERMODE Encoder Mode
 747:Drivers/STM32F4xx_HAL_Driver/Inc/stm32f4xx_ll_tim.h ****   * @{
ARM GAS  C:\Users\paulp\AppData\Local\Temp\cc1vPtHZ.s 			page 24


 748:Drivers/STM32F4xx_HAL_Driver/Inc/stm32f4xx_ll_tim.h ****   */
 749:Drivers/STM32F4xx_HAL_Driver/Inc/stm32f4xx_ll_tim.h **** #define LL_TIM_ENCODERMODE_X2_TI1                     TIM_SMCR_SMS_0                               
 750:Drivers/STM32F4xx_HAL_Driver/Inc/stm32f4xx_ll_tim.h **** #define LL_TIM_ENCODERMODE_X2_TI2                     TIM_SMCR_SMS_1                               
 751:Drivers/STM32F4xx_HAL_Driver/Inc/stm32f4xx_ll_tim.h **** #define LL_TIM_ENCODERMODE_X4_TI12                   (TIM_SMCR_SMS_1 | TIM_SMCR_SMS_0)             
 752:Drivers/STM32F4xx_HAL_Driver/Inc/stm32f4xx_ll_tim.h **** /**
 753:Drivers/STM32F4xx_HAL_Driver/Inc/stm32f4xx_ll_tim.h ****   * @}
 754:Drivers/STM32F4xx_HAL_Driver/Inc/stm32f4xx_ll_tim.h ****   */
 755:Drivers/STM32F4xx_HAL_Driver/Inc/stm32f4xx_ll_tim.h **** 
 756:Drivers/STM32F4xx_HAL_Driver/Inc/stm32f4xx_ll_tim.h **** /** @defgroup TIM_LL_EC_TRGO Trigger Output
 757:Drivers/STM32F4xx_HAL_Driver/Inc/stm32f4xx_ll_tim.h ****   * @{
 758:Drivers/STM32F4xx_HAL_Driver/Inc/stm32f4xx_ll_tim.h ****   */
 759:Drivers/STM32F4xx_HAL_Driver/Inc/stm32f4xx_ll_tim.h **** #define LL_TIM_TRGO_RESET                      0x00000000U                                     /*!<
 760:Drivers/STM32F4xx_HAL_Driver/Inc/stm32f4xx_ll_tim.h **** #define LL_TIM_TRGO_ENABLE                     TIM_CR2_MMS_0                                   /*!<
 761:Drivers/STM32F4xx_HAL_Driver/Inc/stm32f4xx_ll_tim.h **** #define LL_TIM_TRGO_UPDATE                     TIM_CR2_MMS_1                                   /*!<
 762:Drivers/STM32F4xx_HAL_Driver/Inc/stm32f4xx_ll_tim.h **** #define LL_TIM_TRGO_CC1IF                      (TIM_CR2_MMS_1 | TIM_CR2_MMS_0)                 /*!<
 763:Drivers/STM32F4xx_HAL_Driver/Inc/stm32f4xx_ll_tim.h **** #define LL_TIM_TRGO_OC1REF                     TIM_CR2_MMS_2                                   /*!<
 764:Drivers/STM32F4xx_HAL_Driver/Inc/stm32f4xx_ll_tim.h **** #define LL_TIM_TRGO_OC2REF                     (TIM_CR2_MMS_2 | TIM_CR2_MMS_0)                 /*!<
 765:Drivers/STM32F4xx_HAL_Driver/Inc/stm32f4xx_ll_tim.h **** #define LL_TIM_TRGO_OC3REF                     (TIM_CR2_MMS_2 | TIM_CR2_MMS_1)                 /*!<
 766:Drivers/STM32F4xx_HAL_Driver/Inc/stm32f4xx_ll_tim.h **** #define LL_TIM_TRGO_OC4REF                     (TIM_CR2_MMS_2 | TIM_CR2_MMS_1 | TIM_CR2_MMS_0) /*!<
 767:Drivers/STM32F4xx_HAL_Driver/Inc/stm32f4xx_ll_tim.h **** /**
 768:Drivers/STM32F4xx_HAL_Driver/Inc/stm32f4xx_ll_tim.h ****   * @}
 769:Drivers/STM32F4xx_HAL_Driver/Inc/stm32f4xx_ll_tim.h ****   */
 770:Drivers/STM32F4xx_HAL_Driver/Inc/stm32f4xx_ll_tim.h **** 
 771:Drivers/STM32F4xx_HAL_Driver/Inc/stm32f4xx_ll_tim.h **** 
 772:Drivers/STM32F4xx_HAL_Driver/Inc/stm32f4xx_ll_tim.h **** /** @defgroup TIM_LL_EC_SLAVEMODE Slave Mode
 773:Drivers/STM32F4xx_HAL_Driver/Inc/stm32f4xx_ll_tim.h ****   * @{
 774:Drivers/STM32F4xx_HAL_Driver/Inc/stm32f4xx_ll_tim.h ****   */
 775:Drivers/STM32F4xx_HAL_Driver/Inc/stm32f4xx_ll_tim.h **** #define LL_TIM_SLAVEMODE_DISABLED              0x00000000U                         /*!< Slave mode 
 776:Drivers/STM32F4xx_HAL_Driver/Inc/stm32f4xx_ll_tim.h **** #define LL_TIM_SLAVEMODE_RESET                 TIM_SMCR_SMS_2                      /*!< Reset Mode 
 777:Drivers/STM32F4xx_HAL_Driver/Inc/stm32f4xx_ll_tim.h **** #define LL_TIM_SLAVEMODE_GATED                 (TIM_SMCR_SMS_2 | TIM_SMCR_SMS_0)   /*!< Gated Mode 
 778:Drivers/STM32F4xx_HAL_Driver/Inc/stm32f4xx_ll_tim.h **** #define LL_TIM_SLAVEMODE_TRIGGER               (TIM_SMCR_SMS_2 | TIM_SMCR_SMS_1)   /*!< Trigger Mod
 779:Drivers/STM32F4xx_HAL_Driver/Inc/stm32f4xx_ll_tim.h **** /**
 780:Drivers/STM32F4xx_HAL_Driver/Inc/stm32f4xx_ll_tim.h ****   * @}
 781:Drivers/STM32F4xx_HAL_Driver/Inc/stm32f4xx_ll_tim.h ****   */
 782:Drivers/STM32F4xx_HAL_Driver/Inc/stm32f4xx_ll_tim.h **** 
 783:Drivers/STM32F4xx_HAL_Driver/Inc/stm32f4xx_ll_tim.h **** /** @defgroup TIM_LL_EC_TS Trigger Selection
 784:Drivers/STM32F4xx_HAL_Driver/Inc/stm32f4xx_ll_tim.h ****   * @{
 785:Drivers/STM32F4xx_HAL_Driver/Inc/stm32f4xx_ll_tim.h ****   */
 786:Drivers/STM32F4xx_HAL_Driver/Inc/stm32f4xx_ll_tim.h **** #define LL_TIM_TS_ITR0                         0x00000000U                                         
 787:Drivers/STM32F4xx_HAL_Driver/Inc/stm32f4xx_ll_tim.h **** #define LL_TIM_TS_ITR1                         TIM_SMCR_TS_0                                       
 788:Drivers/STM32F4xx_HAL_Driver/Inc/stm32f4xx_ll_tim.h **** #define LL_TIM_TS_ITR2                         TIM_SMCR_TS_1                                       
 789:Drivers/STM32F4xx_HAL_Driver/Inc/stm32f4xx_ll_tim.h **** #define LL_TIM_TS_ITR3                         (TIM_SMCR_TS_0 | TIM_SMCR_TS_1)                     
 790:Drivers/STM32F4xx_HAL_Driver/Inc/stm32f4xx_ll_tim.h **** #define LL_TIM_TS_TI1F_ED                      TIM_SMCR_TS_2                                       
 791:Drivers/STM32F4xx_HAL_Driver/Inc/stm32f4xx_ll_tim.h **** #define LL_TIM_TS_TI1FP1                       (TIM_SMCR_TS_2 | TIM_SMCR_TS_0)                     
 792:Drivers/STM32F4xx_HAL_Driver/Inc/stm32f4xx_ll_tim.h **** #define LL_TIM_TS_TI2FP2                       (TIM_SMCR_TS_2 | TIM_SMCR_TS_1)                     
 793:Drivers/STM32F4xx_HAL_Driver/Inc/stm32f4xx_ll_tim.h **** #define LL_TIM_TS_ETRF                         (TIM_SMCR_TS_2 | TIM_SMCR_TS_1 | TIM_SMCR_TS_0)     
 794:Drivers/STM32F4xx_HAL_Driver/Inc/stm32f4xx_ll_tim.h **** /**
 795:Drivers/STM32F4xx_HAL_Driver/Inc/stm32f4xx_ll_tim.h ****   * @}
 796:Drivers/STM32F4xx_HAL_Driver/Inc/stm32f4xx_ll_tim.h ****   */
 797:Drivers/STM32F4xx_HAL_Driver/Inc/stm32f4xx_ll_tim.h **** 
 798:Drivers/STM32F4xx_HAL_Driver/Inc/stm32f4xx_ll_tim.h **** /** @defgroup TIM_LL_EC_ETR_POLARITY External Trigger Polarity
 799:Drivers/STM32F4xx_HAL_Driver/Inc/stm32f4xx_ll_tim.h ****   * @{
 800:Drivers/STM32F4xx_HAL_Driver/Inc/stm32f4xx_ll_tim.h ****   */
 801:Drivers/STM32F4xx_HAL_Driver/Inc/stm32f4xx_ll_tim.h **** #define LL_TIM_ETR_POLARITY_NONINVERTED        0x00000000U             /*!< ETR is non-inverted, ac
 802:Drivers/STM32F4xx_HAL_Driver/Inc/stm32f4xx_ll_tim.h **** #define LL_TIM_ETR_POLARITY_INVERTED           TIM_SMCR_ETP            /*!< ETR is inverted, active
 803:Drivers/STM32F4xx_HAL_Driver/Inc/stm32f4xx_ll_tim.h **** /**
 804:Drivers/STM32F4xx_HAL_Driver/Inc/stm32f4xx_ll_tim.h ****   * @}
ARM GAS  C:\Users\paulp\AppData\Local\Temp\cc1vPtHZ.s 			page 25


 805:Drivers/STM32F4xx_HAL_Driver/Inc/stm32f4xx_ll_tim.h ****   */
 806:Drivers/STM32F4xx_HAL_Driver/Inc/stm32f4xx_ll_tim.h **** 
 807:Drivers/STM32F4xx_HAL_Driver/Inc/stm32f4xx_ll_tim.h **** /** @defgroup TIM_LL_EC_ETR_PRESCALER External Trigger Prescaler
 808:Drivers/STM32F4xx_HAL_Driver/Inc/stm32f4xx_ll_tim.h ****   * @{
 809:Drivers/STM32F4xx_HAL_Driver/Inc/stm32f4xx_ll_tim.h ****   */
 810:Drivers/STM32F4xx_HAL_Driver/Inc/stm32f4xx_ll_tim.h **** #define LL_TIM_ETR_PRESCALER_DIV1              0x00000000U             /*!< ETR prescaler OFF */
 811:Drivers/STM32F4xx_HAL_Driver/Inc/stm32f4xx_ll_tim.h **** #define LL_TIM_ETR_PRESCALER_DIV2              TIM_SMCR_ETPS_0         /*!< ETR frequency is divide
 812:Drivers/STM32F4xx_HAL_Driver/Inc/stm32f4xx_ll_tim.h **** #define LL_TIM_ETR_PRESCALER_DIV4              TIM_SMCR_ETPS_1         /*!< ETR frequency is divide
 813:Drivers/STM32F4xx_HAL_Driver/Inc/stm32f4xx_ll_tim.h **** #define LL_TIM_ETR_PRESCALER_DIV8              TIM_SMCR_ETPS           /*!< ETR frequency is divide
 814:Drivers/STM32F4xx_HAL_Driver/Inc/stm32f4xx_ll_tim.h **** /**
 815:Drivers/STM32F4xx_HAL_Driver/Inc/stm32f4xx_ll_tim.h ****   * @}
 816:Drivers/STM32F4xx_HAL_Driver/Inc/stm32f4xx_ll_tim.h ****   */
 817:Drivers/STM32F4xx_HAL_Driver/Inc/stm32f4xx_ll_tim.h **** 
 818:Drivers/STM32F4xx_HAL_Driver/Inc/stm32f4xx_ll_tim.h **** /** @defgroup TIM_LL_EC_ETR_FILTER External Trigger Filter
 819:Drivers/STM32F4xx_HAL_Driver/Inc/stm32f4xx_ll_tim.h ****   * @{
 820:Drivers/STM32F4xx_HAL_Driver/Inc/stm32f4xx_ll_tim.h ****   */
 821:Drivers/STM32F4xx_HAL_Driver/Inc/stm32f4xx_ll_tim.h **** #define LL_TIM_ETR_FILTER_FDIV1                0x00000000U                                         
 822:Drivers/STM32F4xx_HAL_Driver/Inc/stm32f4xx_ll_tim.h **** #define LL_TIM_ETR_FILTER_FDIV1_N2             TIM_SMCR_ETF_0                                      
 823:Drivers/STM32F4xx_HAL_Driver/Inc/stm32f4xx_ll_tim.h **** #define LL_TIM_ETR_FILTER_FDIV1_N4             TIM_SMCR_ETF_1                                      
 824:Drivers/STM32F4xx_HAL_Driver/Inc/stm32f4xx_ll_tim.h **** #define LL_TIM_ETR_FILTER_FDIV1_N8             (TIM_SMCR_ETF_1 | TIM_SMCR_ETF_0)                   
 825:Drivers/STM32F4xx_HAL_Driver/Inc/stm32f4xx_ll_tim.h **** #define LL_TIM_ETR_FILTER_FDIV2_N6             TIM_SMCR_ETF_2                                      
 826:Drivers/STM32F4xx_HAL_Driver/Inc/stm32f4xx_ll_tim.h **** #define LL_TIM_ETR_FILTER_FDIV2_N8             (TIM_SMCR_ETF_2 | TIM_SMCR_ETF_0)                   
 827:Drivers/STM32F4xx_HAL_Driver/Inc/stm32f4xx_ll_tim.h **** #define LL_TIM_ETR_FILTER_FDIV4_N6             (TIM_SMCR_ETF_2 | TIM_SMCR_ETF_1)                   
 828:Drivers/STM32F4xx_HAL_Driver/Inc/stm32f4xx_ll_tim.h **** #define LL_TIM_ETR_FILTER_FDIV4_N8             (TIM_SMCR_ETF_2 | TIM_SMCR_ETF_1 | TIM_SMCR_ETF_0)  
 829:Drivers/STM32F4xx_HAL_Driver/Inc/stm32f4xx_ll_tim.h **** #define LL_TIM_ETR_FILTER_FDIV8_N6             TIM_SMCR_ETF_3                                      
 830:Drivers/STM32F4xx_HAL_Driver/Inc/stm32f4xx_ll_tim.h **** #define LL_TIM_ETR_FILTER_FDIV8_N8             (TIM_SMCR_ETF_3 | TIM_SMCR_ETF_0)                   
 831:Drivers/STM32F4xx_HAL_Driver/Inc/stm32f4xx_ll_tim.h **** #define LL_TIM_ETR_FILTER_FDIV16_N5            (TIM_SMCR_ETF_3 | TIM_SMCR_ETF_1)                   
 832:Drivers/STM32F4xx_HAL_Driver/Inc/stm32f4xx_ll_tim.h **** #define LL_TIM_ETR_FILTER_FDIV16_N6            (TIM_SMCR_ETF_3 | TIM_SMCR_ETF_1 | TIM_SMCR_ETF_0)  
 833:Drivers/STM32F4xx_HAL_Driver/Inc/stm32f4xx_ll_tim.h **** #define LL_TIM_ETR_FILTER_FDIV16_N8            (TIM_SMCR_ETF_3 | TIM_SMCR_ETF_2)                   
 834:Drivers/STM32F4xx_HAL_Driver/Inc/stm32f4xx_ll_tim.h **** #define LL_TIM_ETR_FILTER_FDIV32_N5            (TIM_SMCR_ETF_3 | TIM_SMCR_ETF_2 | TIM_SMCR_ETF_0)  
 835:Drivers/STM32F4xx_HAL_Driver/Inc/stm32f4xx_ll_tim.h **** #define LL_TIM_ETR_FILTER_FDIV32_N6            (TIM_SMCR_ETF_3 | TIM_SMCR_ETF_2 | TIM_SMCR_ETF_1)  
 836:Drivers/STM32F4xx_HAL_Driver/Inc/stm32f4xx_ll_tim.h **** #define LL_TIM_ETR_FILTER_FDIV32_N8            TIM_SMCR_ETF                                        
 837:Drivers/STM32F4xx_HAL_Driver/Inc/stm32f4xx_ll_tim.h **** /**
 838:Drivers/STM32F4xx_HAL_Driver/Inc/stm32f4xx_ll_tim.h ****   * @}
 839:Drivers/STM32F4xx_HAL_Driver/Inc/stm32f4xx_ll_tim.h ****   */
 840:Drivers/STM32F4xx_HAL_Driver/Inc/stm32f4xx_ll_tim.h **** 
 841:Drivers/STM32F4xx_HAL_Driver/Inc/stm32f4xx_ll_tim.h **** 
 842:Drivers/STM32F4xx_HAL_Driver/Inc/stm32f4xx_ll_tim.h **** /** @defgroup TIM_LL_EC_BREAK_POLARITY break polarity
 843:Drivers/STM32F4xx_HAL_Driver/Inc/stm32f4xx_ll_tim.h ****   * @{
 844:Drivers/STM32F4xx_HAL_Driver/Inc/stm32f4xx_ll_tim.h ****   */
 845:Drivers/STM32F4xx_HAL_Driver/Inc/stm32f4xx_ll_tim.h **** #define LL_TIM_BREAK_POLARITY_LOW              0x00000000U               /*!< Break input BRK is ac
 846:Drivers/STM32F4xx_HAL_Driver/Inc/stm32f4xx_ll_tim.h **** #define LL_TIM_BREAK_POLARITY_HIGH             TIM_BDTR_BKP              /*!< Break input BRK is ac
 847:Drivers/STM32F4xx_HAL_Driver/Inc/stm32f4xx_ll_tim.h **** /**
 848:Drivers/STM32F4xx_HAL_Driver/Inc/stm32f4xx_ll_tim.h ****   * @}
 849:Drivers/STM32F4xx_HAL_Driver/Inc/stm32f4xx_ll_tim.h ****   */
 850:Drivers/STM32F4xx_HAL_Driver/Inc/stm32f4xx_ll_tim.h **** 
 851:Drivers/STM32F4xx_HAL_Driver/Inc/stm32f4xx_ll_tim.h **** 
 852:Drivers/STM32F4xx_HAL_Driver/Inc/stm32f4xx_ll_tim.h **** 
 853:Drivers/STM32F4xx_HAL_Driver/Inc/stm32f4xx_ll_tim.h **** 
 854:Drivers/STM32F4xx_HAL_Driver/Inc/stm32f4xx_ll_tim.h **** /** @defgroup TIM_LL_EC_OSSI OSSI
 855:Drivers/STM32F4xx_HAL_Driver/Inc/stm32f4xx_ll_tim.h ****   * @{
 856:Drivers/STM32F4xx_HAL_Driver/Inc/stm32f4xx_ll_tim.h ****   */
 857:Drivers/STM32F4xx_HAL_Driver/Inc/stm32f4xx_ll_tim.h **** #define LL_TIM_OSSI_DISABLE                    0x00000000U             /*!< When inactive, OCx/OCxN
 858:Drivers/STM32F4xx_HAL_Driver/Inc/stm32f4xx_ll_tim.h **** #define LL_TIM_OSSI_ENABLE                     TIM_BDTR_OSSI           /*!< When inactive, OxC/OCxN
 859:Drivers/STM32F4xx_HAL_Driver/Inc/stm32f4xx_ll_tim.h **** /**
 860:Drivers/STM32F4xx_HAL_Driver/Inc/stm32f4xx_ll_tim.h ****   * @}
 861:Drivers/STM32F4xx_HAL_Driver/Inc/stm32f4xx_ll_tim.h ****   */
ARM GAS  C:\Users\paulp\AppData\Local\Temp\cc1vPtHZ.s 			page 26


 862:Drivers/STM32F4xx_HAL_Driver/Inc/stm32f4xx_ll_tim.h **** 
 863:Drivers/STM32F4xx_HAL_Driver/Inc/stm32f4xx_ll_tim.h **** /** @defgroup TIM_LL_EC_OSSR OSSR
 864:Drivers/STM32F4xx_HAL_Driver/Inc/stm32f4xx_ll_tim.h ****   * @{
 865:Drivers/STM32F4xx_HAL_Driver/Inc/stm32f4xx_ll_tim.h ****   */
 866:Drivers/STM32F4xx_HAL_Driver/Inc/stm32f4xx_ll_tim.h **** #define LL_TIM_OSSR_DISABLE                    0x00000000U             /*!< When inactive, OCx/OCxN
 867:Drivers/STM32F4xx_HAL_Driver/Inc/stm32f4xx_ll_tim.h **** #define LL_TIM_OSSR_ENABLE                     TIM_BDTR_OSSR           /*!< When inactive, OC/OCN o
 868:Drivers/STM32F4xx_HAL_Driver/Inc/stm32f4xx_ll_tim.h **** /**
 869:Drivers/STM32F4xx_HAL_Driver/Inc/stm32f4xx_ll_tim.h ****   * @}
 870:Drivers/STM32F4xx_HAL_Driver/Inc/stm32f4xx_ll_tim.h ****   */
 871:Drivers/STM32F4xx_HAL_Driver/Inc/stm32f4xx_ll_tim.h **** 
 872:Drivers/STM32F4xx_HAL_Driver/Inc/stm32f4xx_ll_tim.h **** 
 873:Drivers/STM32F4xx_HAL_Driver/Inc/stm32f4xx_ll_tim.h **** /** @defgroup TIM_LL_EC_DMABURST_BASEADDR DMA Burst Base Address
 874:Drivers/STM32F4xx_HAL_Driver/Inc/stm32f4xx_ll_tim.h ****   * @{
 875:Drivers/STM32F4xx_HAL_Driver/Inc/stm32f4xx_ll_tim.h ****   */
 876:Drivers/STM32F4xx_HAL_Driver/Inc/stm32f4xx_ll_tim.h **** #define LL_TIM_DMABURST_BASEADDR_CR1           0x00000000U                                         
 877:Drivers/STM32F4xx_HAL_Driver/Inc/stm32f4xx_ll_tim.h **** #define LL_TIM_DMABURST_BASEADDR_CR2           TIM_DCR_DBA_0                                       
 878:Drivers/STM32F4xx_HAL_Driver/Inc/stm32f4xx_ll_tim.h **** #define LL_TIM_DMABURST_BASEADDR_SMCR          TIM_DCR_DBA_1                                       
 879:Drivers/STM32F4xx_HAL_Driver/Inc/stm32f4xx_ll_tim.h **** #define LL_TIM_DMABURST_BASEADDR_DIER          (TIM_DCR_DBA_1 |  TIM_DCR_DBA_0)                    
 880:Drivers/STM32F4xx_HAL_Driver/Inc/stm32f4xx_ll_tim.h **** #define LL_TIM_DMABURST_BASEADDR_SR            TIM_DCR_DBA_2                                       
 881:Drivers/STM32F4xx_HAL_Driver/Inc/stm32f4xx_ll_tim.h **** #define LL_TIM_DMABURST_BASEADDR_EGR           (TIM_DCR_DBA_2 | TIM_DCR_DBA_0)                     
 882:Drivers/STM32F4xx_HAL_Driver/Inc/stm32f4xx_ll_tim.h **** #define LL_TIM_DMABURST_BASEADDR_CCMR1         (TIM_DCR_DBA_2 | TIM_DCR_DBA_1)                     
 883:Drivers/STM32F4xx_HAL_Driver/Inc/stm32f4xx_ll_tim.h **** #define LL_TIM_DMABURST_BASEADDR_CCMR2         (TIM_DCR_DBA_2 | TIM_DCR_DBA_1 | TIM_DCR_DBA_0)     
 884:Drivers/STM32F4xx_HAL_Driver/Inc/stm32f4xx_ll_tim.h **** #define LL_TIM_DMABURST_BASEADDR_CCER          TIM_DCR_DBA_3                                       
 885:Drivers/STM32F4xx_HAL_Driver/Inc/stm32f4xx_ll_tim.h **** #define LL_TIM_DMABURST_BASEADDR_CNT           (TIM_DCR_DBA_3 | TIM_DCR_DBA_0)                     
 886:Drivers/STM32F4xx_HAL_Driver/Inc/stm32f4xx_ll_tim.h **** #define LL_TIM_DMABURST_BASEADDR_PSC           (TIM_DCR_DBA_3 | TIM_DCR_DBA_1)                     
 887:Drivers/STM32F4xx_HAL_Driver/Inc/stm32f4xx_ll_tim.h **** #define LL_TIM_DMABURST_BASEADDR_ARR           (TIM_DCR_DBA_3 | TIM_DCR_DBA_1 | TIM_DCR_DBA_0)     
 888:Drivers/STM32F4xx_HAL_Driver/Inc/stm32f4xx_ll_tim.h **** #define LL_TIM_DMABURST_BASEADDR_RCR           (TIM_DCR_DBA_3 | TIM_DCR_DBA_2)                     
 889:Drivers/STM32F4xx_HAL_Driver/Inc/stm32f4xx_ll_tim.h **** #define LL_TIM_DMABURST_BASEADDR_CCR1          (TIM_DCR_DBA_3 | TIM_DCR_DBA_2 | TIM_DCR_DBA_0)     
 890:Drivers/STM32F4xx_HAL_Driver/Inc/stm32f4xx_ll_tim.h **** #define LL_TIM_DMABURST_BASEADDR_CCR2          (TIM_DCR_DBA_3 | TIM_DCR_DBA_2 | TIM_DCR_DBA_1)     
 891:Drivers/STM32F4xx_HAL_Driver/Inc/stm32f4xx_ll_tim.h **** #define LL_TIM_DMABURST_BASEADDR_CCR3          (TIM_DCR_DBA_3 | TIM_DCR_DBA_2 | TIM_DCR_DBA_1 | TIM
 892:Drivers/STM32F4xx_HAL_Driver/Inc/stm32f4xx_ll_tim.h **** #define LL_TIM_DMABURST_BASEADDR_CCR4          TIM_DCR_DBA_4                                       
 893:Drivers/STM32F4xx_HAL_Driver/Inc/stm32f4xx_ll_tim.h **** #define LL_TIM_DMABURST_BASEADDR_BDTR          (TIM_DCR_DBA_4 | TIM_DCR_DBA_0)                     
 894:Drivers/STM32F4xx_HAL_Driver/Inc/stm32f4xx_ll_tim.h **** /**
 895:Drivers/STM32F4xx_HAL_Driver/Inc/stm32f4xx_ll_tim.h ****   * @}
 896:Drivers/STM32F4xx_HAL_Driver/Inc/stm32f4xx_ll_tim.h ****   */
 897:Drivers/STM32F4xx_HAL_Driver/Inc/stm32f4xx_ll_tim.h **** 
 898:Drivers/STM32F4xx_HAL_Driver/Inc/stm32f4xx_ll_tim.h **** /** @defgroup TIM_LL_EC_DMABURST_LENGTH DMA Burst Length
 899:Drivers/STM32F4xx_HAL_Driver/Inc/stm32f4xx_ll_tim.h ****   * @{
 900:Drivers/STM32F4xx_HAL_Driver/Inc/stm32f4xx_ll_tim.h ****   */
 901:Drivers/STM32F4xx_HAL_Driver/Inc/stm32f4xx_ll_tim.h **** #define LL_TIM_DMABURST_LENGTH_1TRANSFER       0x00000000U                                         
 902:Drivers/STM32F4xx_HAL_Driver/Inc/stm32f4xx_ll_tim.h **** #define LL_TIM_DMABURST_LENGTH_2TRANSFERS      TIM_DCR_DBL_0                                       
 903:Drivers/STM32F4xx_HAL_Driver/Inc/stm32f4xx_ll_tim.h **** #define LL_TIM_DMABURST_LENGTH_3TRANSFERS      TIM_DCR_DBL_1                                       
 904:Drivers/STM32F4xx_HAL_Driver/Inc/stm32f4xx_ll_tim.h **** #define LL_TIM_DMABURST_LENGTH_4TRANSFERS      (TIM_DCR_DBL_1 |  TIM_DCR_DBL_0)                    
 905:Drivers/STM32F4xx_HAL_Driver/Inc/stm32f4xx_ll_tim.h **** #define LL_TIM_DMABURST_LENGTH_5TRANSFERS      TIM_DCR_DBL_2                                       
 906:Drivers/STM32F4xx_HAL_Driver/Inc/stm32f4xx_ll_tim.h **** #define LL_TIM_DMABURST_LENGTH_6TRANSFERS      (TIM_DCR_DBL_2 | TIM_DCR_DBL_0)                     
 907:Drivers/STM32F4xx_HAL_Driver/Inc/stm32f4xx_ll_tim.h **** #define LL_TIM_DMABURST_LENGTH_7TRANSFERS      (TIM_DCR_DBL_2 | TIM_DCR_DBL_1)                     
 908:Drivers/STM32F4xx_HAL_Driver/Inc/stm32f4xx_ll_tim.h **** #define LL_TIM_DMABURST_LENGTH_8TRANSFERS      (TIM_DCR_DBL_2 | TIM_DCR_DBL_1 | TIM_DCR_DBL_0)     
 909:Drivers/STM32F4xx_HAL_Driver/Inc/stm32f4xx_ll_tim.h **** #define LL_TIM_DMABURST_LENGTH_9TRANSFERS      TIM_DCR_DBL_3                                       
 910:Drivers/STM32F4xx_HAL_Driver/Inc/stm32f4xx_ll_tim.h **** #define LL_TIM_DMABURST_LENGTH_10TRANSFERS     (TIM_DCR_DBL_3 | TIM_DCR_DBL_0)                     
 911:Drivers/STM32F4xx_HAL_Driver/Inc/stm32f4xx_ll_tim.h **** #define LL_TIM_DMABURST_LENGTH_11TRANSFERS     (TIM_DCR_DBL_3 | TIM_DCR_DBL_1)                     
 912:Drivers/STM32F4xx_HAL_Driver/Inc/stm32f4xx_ll_tim.h **** #define LL_TIM_DMABURST_LENGTH_12TRANSFERS     (TIM_DCR_DBL_3 | TIM_DCR_DBL_1 | TIM_DCR_DBL_0)     
 913:Drivers/STM32F4xx_HAL_Driver/Inc/stm32f4xx_ll_tim.h **** #define LL_TIM_DMABURST_LENGTH_13TRANSFERS     (TIM_DCR_DBL_3 | TIM_DCR_DBL_2)                     
 914:Drivers/STM32F4xx_HAL_Driver/Inc/stm32f4xx_ll_tim.h **** #define LL_TIM_DMABURST_LENGTH_14TRANSFERS     (TIM_DCR_DBL_3 | TIM_DCR_DBL_2 | TIM_DCR_DBL_0)     
 915:Drivers/STM32F4xx_HAL_Driver/Inc/stm32f4xx_ll_tim.h **** #define LL_TIM_DMABURST_LENGTH_15TRANSFERS     (TIM_DCR_DBL_3 | TIM_DCR_DBL_2 | TIM_DCR_DBL_1)     
 916:Drivers/STM32F4xx_HAL_Driver/Inc/stm32f4xx_ll_tim.h **** #define LL_TIM_DMABURST_LENGTH_16TRANSFERS     (TIM_DCR_DBL_3 | TIM_DCR_DBL_2 | TIM_DCR_DBL_1 | TIM
 917:Drivers/STM32F4xx_HAL_Driver/Inc/stm32f4xx_ll_tim.h **** #define LL_TIM_DMABURST_LENGTH_17TRANSFERS     TIM_DCR_DBL_4                                       
 918:Drivers/STM32F4xx_HAL_Driver/Inc/stm32f4xx_ll_tim.h **** #define LL_TIM_DMABURST_LENGTH_18TRANSFERS     (TIM_DCR_DBL_4 |  TIM_DCR_DBL_0)                    
ARM GAS  C:\Users\paulp\AppData\Local\Temp\cc1vPtHZ.s 			page 27


 919:Drivers/STM32F4xx_HAL_Driver/Inc/stm32f4xx_ll_tim.h **** /**
 920:Drivers/STM32F4xx_HAL_Driver/Inc/stm32f4xx_ll_tim.h ****   * @}
 921:Drivers/STM32F4xx_HAL_Driver/Inc/stm32f4xx_ll_tim.h ****   */
 922:Drivers/STM32F4xx_HAL_Driver/Inc/stm32f4xx_ll_tim.h **** 
 923:Drivers/STM32F4xx_HAL_Driver/Inc/stm32f4xx_ll_tim.h **** 
 924:Drivers/STM32F4xx_HAL_Driver/Inc/stm32f4xx_ll_tim.h **** /** @defgroup TIM_LL_EC_TIM2_ITR1_RMP_TIM8  TIM2 Internal Trigger1 Remap TIM8
 925:Drivers/STM32F4xx_HAL_Driver/Inc/stm32f4xx_ll_tim.h ****   * @{
 926:Drivers/STM32F4xx_HAL_Driver/Inc/stm32f4xx_ll_tim.h ****   */
 927:Drivers/STM32F4xx_HAL_Driver/Inc/stm32f4xx_ll_tim.h **** #define LL_TIM_TIM2_ITR1_RMP_TIM8_TRGO    TIM2_OR_RMP_MASK                        /*!< TIM2_ITR1 is
 928:Drivers/STM32F4xx_HAL_Driver/Inc/stm32f4xx_ll_tim.h **** #define LL_TIM_TIM2_ITR1_RMP_ETH_PTP      (TIM_OR_ITR1_RMP_0 | TIM2_OR_RMP_MASK)  /*!< TIM2_ITR1 is
 929:Drivers/STM32F4xx_HAL_Driver/Inc/stm32f4xx_ll_tim.h **** #define LL_TIM_TIM2_ITR1_RMP_OTG_FS_SOF   (TIM_OR_ITR1_RMP_1 | TIM2_OR_RMP_MASK)  /*!< TIM2_ITR1 is
 930:Drivers/STM32F4xx_HAL_Driver/Inc/stm32f4xx_ll_tim.h **** #define LL_TIM_TIM2_ITR1_RMP_OTG_HS_SOF   (TIM_OR_ITR1_RMP | TIM2_OR_RMP_MASK)    /*!< TIM2_ITR1 is
 931:Drivers/STM32F4xx_HAL_Driver/Inc/stm32f4xx_ll_tim.h **** /**
 932:Drivers/STM32F4xx_HAL_Driver/Inc/stm32f4xx_ll_tim.h ****   * @}
 933:Drivers/STM32F4xx_HAL_Driver/Inc/stm32f4xx_ll_tim.h ****   */
 934:Drivers/STM32F4xx_HAL_Driver/Inc/stm32f4xx_ll_tim.h **** 
 935:Drivers/STM32F4xx_HAL_Driver/Inc/stm32f4xx_ll_tim.h **** /** @defgroup TIM_LL_EC_TIM5_TI4_RMP  TIM5 External Input Ch4 Remap
 936:Drivers/STM32F4xx_HAL_Driver/Inc/stm32f4xx_ll_tim.h ****   * @{
 937:Drivers/STM32F4xx_HAL_Driver/Inc/stm32f4xx_ll_tim.h ****   */
 938:Drivers/STM32F4xx_HAL_Driver/Inc/stm32f4xx_ll_tim.h **** #define LL_TIM_TIM5_TI4_RMP_GPIO        TIM5_OR_RMP_MASK                         /*!< TIM5 channel 
 939:Drivers/STM32F4xx_HAL_Driver/Inc/stm32f4xx_ll_tim.h **** #define LL_TIM_TIM5_TI4_RMP_LSI         (TIM_OR_TI4_RMP_0 | TIM5_OR_RMP_MASK)    /*!< TIM5 channel 
 940:Drivers/STM32F4xx_HAL_Driver/Inc/stm32f4xx_ll_tim.h **** #define LL_TIM_TIM5_TI4_RMP_LSE         (TIM_OR_TI4_RMP_1 | TIM5_OR_RMP_MASK)    /*!< TIM5 channel 
 941:Drivers/STM32F4xx_HAL_Driver/Inc/stm32f4xx_ll_tim.h **** #define LL_TIM_TIM5_TI4_RMP_RTC         (TIM_OR_TI4_RMP | TIM5_OR_RMP_MASK)      /*!< TIM5 channel 
 942:Drivers/STM32F4xx_HAL_Driver/Inc/stm32f4xx_ll_tim.h **** /**
 943:Drivers/STM32F4xx_HAL_Driver/Inc/stm32f4xx_ll_tim.h ****   * @}
 944:Drivers/STM32F4xx_HAL_Driver/Inc/stm32f4xx_ll_tim.h ****   */
 945:Drivers/STM32F4xx_HAL_Driver/Inc/stm32f4xx_ll_tim.h **** 
 946:Drivers/STM32F4xx_HAL_Driver/Inc/stm32f4xx_ll_tim.h **** /** @defgroup TIM_LL_EC_TIM11_TI1_RMP  TIM11 External Input Capture 1 Remap
 947:Drivers/STM32F4xx_HAL_Driver/Inc/stm32f4xx_ll_tim.h ****   * @{
 948:Drivers/STM32F4xx_HAL_Driver/Inc/stm32f4xx_ll_tim.h ****   */
 949:Drivers/STM32F4xx_HAL_Driver/Inc/stm32f4xx_ll_tim.h **** #define LL_TIM_TIM11_TI1_RMP_GPIO        TIM11_OR_RMP_MASK                          /*!< TIM11 chan
 950:Drivers/STM32F4xx_HAL_Driver/Inc/stm32f4xx_ll_tim.h **** #if defined(SPDIFRX)
 951:Drivers/STM32F4xx_HAL_Driver/Inc/stm32f4xx_ll_tim.h **** #define LL_TIM_TIM11_TI1_RMP_SPDIFRX     (TIM_OR_TI1_RMP_0 | TIM11_OR_RMP_MASK)     /*!< TIM11 chan
 952:Drivers/STM32F4xx_HAL_Driver/Inc/stm32f4xx_ll_tim.h **** 
 953:Drivers/STM32F4xx_HAL_Driver/Inc/stm32f4xx_ll_tim.h **** /* Legacy define */
 954:Drivers/STM32F4xx_HAL_Driver/Inc/stm32f4xx_ll_tim.h **** #define  LL_TIM_TIM11_TI1_RMP_GPIO1      LL_TIM_TIM11_TI1_RMP_SPDIFRX               /*!< Legacy def
 955:Drivers/STM32F4xx_HAL_Driver/Inc/stm32f4xx_ll_tim.h **** 
 956:Drivers/STM32F4xx_HAL_Driver/Inc/stm32f4xx_ll_tim.h **** #else
 957:Drivers/STM32F4xx_HAL_Driver/Inc/stm32f4xx_ll_tim.h **** #define LL_TIM_TIM11_TI1_RMP_GPIO1       (TIM_OR_TI1_RMP_0 | TIM11_OR_RMP_MASK)     /*!< TIM11 chan
 958:Drivers/STM32F4xx_HAL_Driver/Inc/stm32f4xx_ll_tim.h **** #endif /* SPDIFRX */
 959:Drivers/STM32F4xx_HAL_Driver/Inc/stm32f4xx_ll_tim.h **** #define LL_TIM_TIM11_TI1_RMP_GPIO2       (TIM_OR_TI1_RMP   | TIM11_OR_RMP_MASK)     /*!< TIM11 chan
 960:Drivers/STM32F4xx_HAL_Driver/Inc/stm32f4xx_ll_tim.h **** #define LL_TIM_TIM11_TI1_RMP_HSE_RTC     (TIM_OR_TI1_RMP_1 | TIM11_OR_RMP_MASK)     /*!< TIM11 chan
 961:Drivers/STM32F4xx_HAL_Driver/Inc/stm32f4xx_ll_tim.h **** /**
 962:Drivers/STM32F4xx_HAL_Driver/Inc/stm32f4xx_ll_tim.h ****   * @}
 963:Drivers/STM32F4xx_HAL_Driver/Inc/stm32f4xx_ll_tim.h ****   */
 964:Drivers/STM32F4xx_HAL_Driver/Inc/stm32f4xx_ll_tim.h **** #if defined(LPTIM_OR_TIM1_ITR2_RMP) && defined(LPTIM_OR_TIM5_ITR1_RMP) && defined(LPTIM_OR_TIM9_ITR
 965:Drivers/STM32F4xx_HAL_Driver/Inc/stm32f4xx_ll_tim.h **** 
 966:Drivers/STM32F4xx_HAL_Driver/Inc/stm32f4xx_ll_tim.h **** #define LL_TIM_LPTIM_REMAP_MASK           0x10000000U
 967:Drivers/STM32F4xx_HAL_Driver/Inc/stm32f4xx_ll_tim.h **** 
 968:Drivers/STM32F4xx_HAL_Driver/Inc/stm32f4xx_ll_tim.h **** #define LL_TIM_TIM9_ITR1_RMP_TIM3_TRGO    LL_TIM_LPTIM_REMAP_MASK                              /*!<
 969:Drivers/STM32F4xx_HAL_Driver/Inc/stm32f4xx_ll_tim.h **** #define LL_TIM_TIM9_ITR1_RMP_LPTIM       (LL_TIM_LPTIM_REMAP_MASK | LPTIM_OR_TIM9_ITR1_RMP)    /*!<
 970:Drivers/STM32F4xx_HAL_Driver/Inc/stm32f4xx_ll_tim.h **** 
 971:Drivers/STM32F4xx_HAL_Driver/Inc/stm32f4xx_ll_tim.h **** #define LL_TIM_TIM5_ITR1_RMP_TIM3_TRGO    LL_TIM_LPTIM_REMAP_MASK                              /*!<
 972:Drivers/STM32F4xx_HAL_Driver/Inc/stm32f4xx_ll_tim.h **** #define LL_TIM_TIM5_ITR1_RMP_LPTIM       (LL_TIM_LPTIM_REMAP_MASK | LPTIM_OR_TIM5_ITR1_RMP)    /*!<
 973:Drivers/STM32F4xx_HAL_Driver/Inc/stm32f4xx_ll_tim.h **** 
 974:Drivers/STM32F4xx_HAL_Driver/Inc/stm32f4xx_ll_tim.h **** #define LL_TIM_TIM1_ITR2_RMP_TIM3_TRGO    LL_TIM_LPTIM_REMAP_MASK                              /*!<
 975:Drivers/STM32F4xx_HAL_Driver/Inc/stm32f4xx_ll_tim.h **** #define LL_TIM_TIM1_ITR2_RMP_LPTIM       (LL_TIM_LPTIM_REMAP_MASK | LPTIM_OR_TIM1_ITR2_RMP)    /*!<
ARM GAS  C:\Users\paulp\AppData\Local\Temp\cc1vPtHZ.s 			page 28


 976:Drivers/STM32F4xx_HAL_Driver/Inc/stm32f4xx_ll_tim.h **** 
 977:Drivers/STM32F4xx_HAL_Driver/Inc/stm32f4xx_ll_tim.h **** #endif /* LPTIM_OR_TIM1_ITR2_RMP &&  LPTIM_OR_TIM5_ITR1_RMP && LPTIM_OR_TIM9_ITR1_RMP */
 978:Drivers/STM32F4xx_HAL_Driver/Inc/stm32f4xx_ll_tim.h **** 
 979:Drivers/STM32F4xx_HAL_Driver/Inc/stm32f4xx_ll_tim.h **** /**
 980:Drivers/STM32F4xx_HAL_Driver/Inc/stm32f4xx_ll_tim.h ****   * @}
 981:Drivers/STM32F4xx_HAL_Driver/Inc/stm32f4xx_ll_tim.h ****   */
 982:Drivers/STM32F4xx_HAL_Driver/Inc/stm32f4xx_ll_tim.h **** 
 983:Drivers/STM32F4xx_HAL_Driver/Inc/stm32f4xx_ll_tim.h **** /* Exported macro ------------------------------------------------------------*/
 984:Drivers/STM32F4xx_HAL_Driver/Inc/stm32f4xx_ll_tim.h **** /** @defgroup TIM_LL_Exported_Macros TIM Exported Macros
 985:Drivers/STM32F4xx_HAL_Driver/Inc/stm32f4xx_ll_tim.h ****   * @{
 986:Drivers/STM32F4xx_HAL_Driver/Inc/stm32f4xx_ll_tim.h ****   */
 987:Drivers/STM32F4xx_HAL_Driver/Inc/stm32f4xx_ll_tim.h **** 
 988:Drivers/STM32F4xx_HAL_Driver/Inc/stm32f4xx_ll_tim.h **** /** @defgroup TIM_LL_EM_WRITE_READ Common Write and read registers Macros
 989:Drivers/STM32F4xx_HAL_Driver/Inc/stm32f4xx_ll_tim.h ****   * @{
 990:Drivers/STM32F4xx_HAL_Driver/Inc/stm32f4xx_ll_tim.h ****   */
 991:Drivers/STM32F4xx_HAL_Driver/Inc/stm32f4xx_ll_tim.h **** /**
 992:Drivers/STM32F4xx_HAL_Driver/Inc/stm32f4xx_ll_tim.h ****   * @brief  Write a value in TIM register.
 993:Drivers/STM32F4xx_HAL_Driver/Inc/stm32f4xx_ll_tim.h ****   * @param  __INSTANCE__ TIM Instance
 994:Drivers/STM32F4xx_HAL_Driver/Inc/stm32f4xx_ll_tim.h ****   * @param  __REG__ Register to be written
 995:Drivers/STM32F4xx_HAL_Driver/Inc/stm32f4xx_ll_tim.h ****   * @param  __VALUE__ Value to be written in the register
 996:Drivers/STM32F4xx_HAL_Driver/Inc/stm32f4xx_ll_tim.h ****   * @retval None
 997:Drivers/STM32F4xx_HAL_Driver/Inc/stm32f4xx_ll_tim.h ****   */
 998:Drivers/STM32F4xx_HAL_Driver/Inc/stm32f4xx_ll_tim.h **** #define LL_TIM_WriteReg(__INSTANCE__, __REG__, __VALUE__) WRITE_REG((__INSTANCE__)->__REG__, (__VAL
 999:Drivers/STM32F4xx_HAL_Driver/Inc/stm32f4xx_ll_tim.h **** 
1000:Drivers/STM32F4xx_HAL_Driver/Inc/stm32f4xx_ll_tim.h **** /**
1001:Drivers/STM32F4xx_HAL_Driver/Inc/stm32f4xx_ll_tim.h ****   * @brief  Read a value in TIM register.
1002:Drivers/STM32F4xx_HAL_Driver/Inc/stm32f4xx_ll_tim.h ****   * @param  __INSTANCE__ TIM Instance
1003:Drivers/STM32F4xx_HAL_Driver/Inc/stm32f4xx_ll_tim.h ****   * @param  __REG__ Register to be read
1004:Drivers/STM32F4xx_HAL_Driver/Inc/stm32f4xx_ll_tim.h ****   * @retval Register value
1005:Drivers/STM32F4xx_HAL_Driver/Inc/stm32f4xx_ll_tim.h ****   */
1006:Drivers/STM32F4xx_HAL_Driver/Inc/stm32f4xx_ll_tim.h **** #define LL_TIM_ReadReg(__INSTANCE__, __REG__) READ_REG((__INSTANCE__)->__REG__)
1007:Drivers/STM32F4xx_HAL_Driver/Inc/stm32f4xx_ll_tim.h **** /**
1008:Drivers/STM32F4xx_HAL_Driver/Inc/stm32f4xx_ll_tim.h ****   * @}
1009:Drivers/STM32F4xx_HAL_Driver/Inc/stm32f4xx_ll_tim.h ****   */
1010:Drivers/STM32F4xx_HAL_Driver/Inc/stm32f4xx_ll_tim.h **** 
1011:Drivers/STM32F4xx_HAL_Driver/Inc/stm32f4xx_ll_tim.h **** /** @defgroup TIM_LL_EM_Exported_Macros Exported_Macros
1012:Drivers/STM32F4xx_HAL_Driver/Inc/stm32f4xx_ll_tim.h ****   * @{
1013:Drivers/STM32F4xx_HAL_Driver/Inc/stm32f4xx_ll_tim.h ****   */
1014:Drivers/STM32F4xx_HAL_Driver/Inc/stm32f4xx_ll_tim.h **** 
1015:Drivers/STM32F4xx_HAL_Driver/Inc/stm32f4xx_ll_tim.h **** /**
1016:Drivers/STM32F4xx_HAL_Driver/Inc/stm32f4xx_ll_tim.h ****   * @brief  HELPER macro calculating DTG[0:7] in the TIMx_BDTR register to achieve the requested de
1017:Drivers/STM32F4xx_HAL_Driver/Inc/stm32f4xx_ll_tim.h ****   * @note ex: @ref __LL_TIM_CALC_DEADTIME (80000000, @ref LL_TIM_GetClockDivision (), 120);
1018:Drivers/STM32F4xx_HAL_Driver/Inc/stm32f4xx_ll_tim.h ****   * @param  __TIMCLK__ timer input clock frequency (in Hz)
1019:Drivers/STM32F4xx_HAL_Driver/Inc/stm32f4xx_ll_tim.h ****   * @param  __CKD__ This parameter can be one of the following values:
1020:Drivers/STM32F4xx_HAL_Driver/Inc/stm32f4xx_ll_tim.h ****   *         @arg @ref LL_TIM_CLOCKDIVISION_DIV1
1021:Drivers/STM32F4xx_HAL_Driver/Inc/stm32f4xx_ll_tim.h ****   *         @arg @ref LL_TIM_CLOCKDIVISION_DIV2
1022:Drivers/STM32F4xx_HAL_Driver/Inc/stm32f4xx_ll_tim.h ****   *         @arg @ref LL_TIM_CLOCKDIVISION_DIV4
1023:Drivers/STM32F4xx_HAL_Driver/Inc/stm32f4xx_ll_tim.h ****   * @param  __DT__ deadtime duration (in ns)
1024:Drivers/STM32F4xx_HAL_Driver/Inc/stm32f4xx_ll_tim.h ****   * @retval DTG[0:7]
1025:Drivers/STM32F4xx_HAL_Driver/Inc/stm32f4xx_ll_tim.h ****   */
1026:Drivers/STM32F4xx_HAL_Driver/Inc/stm32f4xx_ll_tim.h **** #define __LL_TIM_CALC_DEADTIME(__TIMCLK__, __CKD__, __DT__)  \
1027:Drivers/STM32F4xx_HAL_Driver/Inc/stm32f4xx_ll_tim.h ****   ( (((uint64_t)((__DT__)*1000U)) < ((DT_DELAY_1+1U) * TIM_CALC_DTS((__TIMCLK__), (__CKD__))))    ?
1028:Drivers/STM32F4xx_HAL_Driver/Inc/stm32f4xx_ll_tim.h ****     (uint8_t)(((uint64_t)((__DT__)*1000U) / TIM_CALC_DTS((__TIMCLK__), (__CKD__)))  & DT_DELAY_1) :
1029:Drivers/STM32F4xx_HAL_Driver/Inc/stm32f4xx_ll_tim.h ****     (((uint64_t)((__DT__)*1000U)) < ((64U + (DT_DELAY_2+1U)) * 2U * TIM_CALC_DTS((__TIMCLK__), (__C
1030:Drivers/STM32F4xx_HAL_Driver/Inc/stm32f4xx_ll_tim.h ****     (uint8_t)(DT_RANGE_2 | ((uint8_t)((uint8_t)((((uint64_t)((__DT__)*1000U))/ TIM_CALC_DTS((__TIMC
1031:Drivers/STM32F4xx_HAL_Driver/Inc/stm32f4xx_ll_tim.h ****                                                  (__CKD__))) >> 1U) - (uint8_t) 64) & DT_DELAY_2)) 
1032:Drivers/STM32F4xx_HAL_Driver/Inc/stm32f4xx_ll_tim.h ****     (((uint64_t)((__DT__)*1000U)) < ((32U + (DT_DELAY_3+1U)) * 8U * TIM_CALC_DTS((__TIMCLK__), (__C
ARM GAS  C:\Users\paulp\AppData\Local\Temp\cc1vPtHZ.s 			page 29


1033:Drivers/STM32F4xx_HAL_Driver/Inc/stm32f4xx_ll_tim.h ****     (uint8_t)(DT_RANGE_3 | ((uint8_t)((uint8_t)(((((uint64_t)(__DT__)*1000U))/ TIM_CALC_DTS((__TIMC
1034:Drivers/STM32F4xx_HAL_Driver/Inc/stm32f4xx_ll_tim.h ****                                                  (__CKD__))) >> 3U) - (uint8_t) 32) & DT_DELAY_3)) 
1035:Drivers/STM32F4xx_HAL_Driver/Inc/stm32f4xx_ll_tim.h ****     (((uint64_t)((__DT__)*1000U)) < ((32U + (DT_DELAY_4+1U)) * 16U * TIM_CALC_DTS((__TIMCLK__), (__
1036:Drivers/STM32F4xx_HAL_Driver/Inc/stm32f4xx_ll_tim.h ****     (uint8_t)(DT_RANGE_4 | ((uint8_t)((uint8_t)(((((uint64_t)(__DT__)*1000U))/ TIM_CALC_DTS((__TIMC
1037:Drivers/STM32F4xx_HAL_Driver/Inc/stm32f4xx_ll_tim.h ****                                                  (__CKD__))) >> 4U) - (uint8_t) 32) & DT_DELAY_4)) 
1038:Drivers/STM32F4xx_HAL_Driver/Inc/stm32f4xx_ll_tim.h ****     0U)
1039:Drivers/STM32F4xx_HAL_Driver/Inc/stm32f4xx_ll_tim.h **** 
1040:Drivers/STM32F4xx_HAL_Driver/Inc/stm32f4xx_ll_tim.h **** /**
1041:Drivers/STM32F4xx_HAL_Driver/Inc/stm32f4xx_ll_tim.h ****   * @brief  HELPER macro calculating the prescaler value to achieve the required counter clock freq
1042:Drivers/STM32F4xx_HAL_Driver/Inc/stm32f4xx_ll_tim.h ****   * @note ex: @ref __LL_TIM_CALC_PSC (80000000, 1000000);
1043:Drivers/STM32F4xx_HAL_Driver/Inc/stm32f4xx_ll_tim.h ****   * @param  __TIMCLK__ timer input clock frequency (in Hz)
1044:Drivers/STM32F4xx_HAL_Driver/Inc/stm32f4xx_ll_tim.h ****   * @param  __CNTCLK__ counter clock frequency (in Hz)
1045:Drivers/STM32F4xx_HAL_Driver/Inc/stm32f4xx_ll_tim.h ****   * @retval Prescaler value  (between Min_Data=0 and Max_Data=65535)
1046:Drivers/STM32F4xx_HAL_Driver/Inc/stm32f4xx_ll_tim.h ****   */
1047:Drivers/STM32F4xx_HAL_Driver/Inc/stm32f4xx_ll_tim.h **** #define __LL_TIM_CALC_PSC(__TIMCLK__, __CNTCLK__)   \
1048:Drivers/STM32F4xx_HAL_Driver/Inc/stm32f4xx_ll_tim.h ****   (((__TIMCLK__) >= (__CNTCLK__)) ? (uint32_t)(((__TIMCLK__)/(__CNTCLK__)) - 1U) : 0U)
1049:Drivers/STM32F4xx_HAL_Driver/Inc/stm32f4xx_ll_tim.h **** 
1050:Drivers/STM32F4xx_HAL_Driver/Inc/stm32f4xx_ll_tim.h **** /**
1051:Drivers/STM32F4xx_HAL_Driver/Inc/stm32f4xx_ll_tim.h ****   * @brief  HELPER macro calculating the auto-reload value to achieve the required output signal fr
1052:Drivers/STM32F4xx_HAL_Driver/Inc/stm32f4xx_ll_tim.h ****   * @note ex: @ref __LL_TIM_CALC_ARR (1000000, @ref LL_TIM_GetPrescaler (), 10000);
1053:Drivers/STM32F4xx_HAL_Driver/Inc/stm32f4xx_ll_tim.h ****   * @param  __TIMCLK__ timer input clock frequency (in Hz)
1054:Drivers/STM32F4xx_HAL_Driver/Inc/stm32f4xx_ll_tim.h ****   * @param  __PSC__ prescaler
1055:Drivers/STM32F4xx_HAL_Driver/Inc/stm32f4xx_ll_tim.h ****   * @param  __FREQ__ output signal frequency (in Hz)
1056:Drivers/STM32F4xx_HAL_Driver/Inc/stm32f4xx_ll_tim.h ****   * @retval  Auto-reload value  (between Min_Data=0 and Max_Data=65535)
1057:Drivers/STM32F4xx_HAL_Driver/Inc/stm32f4xx_ll_tim.h ****   */
1058:Drivers/STM32F4xx_HAL_Driver/Inc/stm32f4xx_ll_tim.h **** #define __LL_TIM_CALC_ARR(__TIMCLK__, __PSC__, __FREQ__) \
1059:Drivers/STM32F4xx_HAL_Driver/Inc/stm32f4xx_ll_tim.h ****   ((((__TIMCLK__)/((__PSC__) + 1U)) >= (__FREQ__)) ? (((__TIMCLK__)/((__FREQ__) * ((__PSC__) + 1U))
1060:Drivers/STM32F4xx_HAL_Driver/Inc/stm32f4xx_ll_tim.h **** 
1061:Drivers/STM32F4xx_HAL_Driver/Inc/stm32f4xx_ll_tim.h **** /**
1062:Drivers/STM32F4xx_HAL_Driver/Inc/stm32f4xx_ll_tim.h ****   * @brief  HELPER macro calculating the compare value required to achieve the required timer outpu
1063:Drivers/STM32F4xx_HAL_Driver/Inc/stm32f4xx_ll_tim.h ****   *         active/inactive delay.
1064:Drivers/STM32F4xx_HAL_Driver/Inc/stm32f4xx_ll_tim.h ****   * @note ex: @ref __LL_TIM_CALC_DELAY (1000000, @ref LL_TIM_GetPrescaler (), 10);
1065:Drivers/STM32F4xx_HAL_Driver/Inc/stm32f4xx_ll_tim.h ****   * @param  __TIMCLK__ timer input clock frequency (in Hz)
1066:Drivers/STM32F4xx_HAL_Driver/Inc/stm32f4xx_ll_tim.h ****   * @param  __PSC__ prescaler
1067:Drivers/STM32F4xx_HAL_Driver/Inc/stm32f4xx_ll_tim.h ****   * @param  __DELAY__ timer output compare active/inactive delay (in us)
1068:Drivers/STM32F4xx_HAL_Driver/Inc/stm32f4xx_ll_tim.h ****   * @retval Compare value  (between Min_Data=0 and Max_Data=65535)
1069:Drivers/STM32F4xx_HAL_Driver/Inc/stm32f4xx_ll_tim.h ****   */
1070:Drivers/STM32F4xx_HAL_Driver/Inc/stm32f4xx_ll_tim.h **** #define __LL_TIM_CALC_DELAY(__TIMCLK__, __PSC__, __DELAY__)  \
1071:Drivers/STM32F4xx_HAL_Driver/Inc/stm32f4xx_ll_tim.h ****   ((uint32_t)(((uint64_t)(__TIMCLK__) * (uint64_t)(__DELAY__)) \
1072:Drivers/STM32F4xx_HAL_Driver/Inc/stm32f4xx_ll_tim.h ****               / ((uint64_t)1000000U * (uint64_t)((__PSC__) + 1U))))
1073:Drivers/STM32F4xx_HAL_Driver/Inc/stm32f4xx_ll_tim.h **** 
1074:Drivers/STM32F4xx_HAL_Driver/Inc/stm32f4xx_ll_tim.h **** /**
1075:Drivers/STM32F4xx_HAL_Driver/Inc/stm32f4xx_ll_tim.h ****   * @brief  HELPER macro calculating the auto-reload value to achieve the required pulse duration
1076:Drivers/STM32F4xx_HAL_Driver/Inc/stm32f4xx_ll_tim.h ****   *         (when the timer operates in one pulse mode).
1077:Drivers/STM32F4xx_HAL_Driver/Inc/stm32f4xx_ll_tim.h ****   * @note ex: @ref __LL_TIM_CALC_PULSE (1000000, @ref LL_TIM_GetPrescaler (), 10, 20);
1078:Drivers/STM32F4xx_HAL_Driver/Inc/stm32f4xx_ll_tim.h ****   * @param  __TIMCLK__ timer input clock frequency (in Hz)
1079:Drivers/STM32F4xx_HAL_Driver/Inc/stm32f4xx_ll_tim.h ****   * @param  __PSC__ prescaler
1080:Drivers/STM32F4xx_HAL_Driver/Inc/stm32f4xx_ll_tim.h ****   * @param  __DELAY__ timer output compare active/inactive delay (in us)
1081:Drivers/STM32F4xx_HAL_Driver/Inc/stm32f4xx_ll_tim.h ****   * @param  __PULSE__ pulse duration (in us)
1082:Drivers/STM32F4xx_HAL_Driver/Inc/stm32f4xx_ll_tim.h ****   * @retval Auto-reload value  (between Min_Data=0 and Max_Data=65535)
1083:Drivers/STM32F4xx_HAL_Driver/Inc/stm32f4xx_ll_tim.h ****   */
1084:Drivers/STM32F4xx_HAL_Driver/Inc/stm32f4xx_ll_tim.h **** #define __LL_TIM_CALC_PULSE(__TIMCLK__, __PSC__, __DELAY__, __PULSE__)  \
1085:Drivers/STM32F4xx_HAL_Driver/Inc/stm32f4xx_ll_tim.h ****   ((uint32_t)(__LL_TIM_CALC_DELAY((__TIMCLK__), (__PSC__), (__PULSE__)) \
1086:Drivers/STM32F4xx_HAL_Driver/Inc/stm32f4xx_ll_tim.h ****               + __LL_TIM_CALC_DELAY((__TIMCLK__), (__PSC__), (__DELAY__))))
1087:Drivers/STM32F4xx_HAL_Driver/Inc/stm32f4xx_ll_tim.h **** 
1088:Drivers/STM32F4xx_HAL_Driver/Inc/stm32f4xx_ll_tim.h **** /**
1089:Drivers/STM32F4xx_HAL_Driver/Inc/stm32f4xx_ll_tim.h ****   * @brief  HELPER macro retrieving the ratio of the input capture prescaler
ARM GAS  C:\Users\paulp\AppData\Local\Temp\cc1vPtHZ.s 			page 30


1090:Drivers/STM32F4xx_HAL_Driver/Inc/stm32f4xx_ll_tim.h ****   * @note ex: @ref __LL_TIM_GET_ICPSC_RATIO (@ref LL_TIM_IC_GetPrescaler ());
1091:Drivers/STM32F4xx_HAL_Driver/Inc/stm32f4xx_ll_tim.h ****   * @param  __ICPSC__ This parameter can be one of the following values:
1092:Drivers/STM32F4xx_HAL_Driver/Inc/stm32f4xx_ll_tim.h ****   *         @arg @ref LL_TIM_ICPSC_DIV1
1093:Drivers/STM32F4xx_HAL_Driver/Inc/stm32f4xx_ll_tim.h ****   *         @arg @ref LL_TIM_ICPSC_DIV2
1094:Drivers/STM32F4xx_HAL_Driver/Inc/stm32f4xx_ll_tim.h ****   *         @arg @ref LL_TIM_ICPSC_DIV4
1095:Drivers/STM32F4xx_HAL_Driver/Inc/stm32f4xx_ll_tim.h ****   *         @arg @ref LL_TIM_ICPSC_DIV8
1096:Drivers/STM32F4xx_HAL_Driver/Inc/stm32f4xx_ll_tim.h ****   * @retval Input capture prescaler ratio (1, 2, 4 or 8)
1097:Drivers/STM32F4xx_HAL_Driver/Inc/stm32f4xx_ll_tim.h ****   */
1098:Drivers/STM32F4xx_HAL_Driver/Inc/stm32f4xx_ll_tim.h **** #define __LL_TIM_GET_ICPSC_RATIO(__ICPSC__)  \
1099:Drivers/STM32F4xx_HAL_Driver/Inc/stm32f4xx_ll_tim.h ****   ((uint32_t)(0x01U << (((__ICPSC__) >> 16U) >> TIM_CCMR1_IC1PSC_Pos)))
1100:Drivers/STM32F4xx_HAL_Driver/Inc/stm32f4xx_ll_tim.h **** 
1101:Drivers/STM32F4xx_HAL_Driver/Inc/stm32f4xx_ll_tim.h **** 
1102:Drivers/STM32F4xx_HAL_Driver/Inc/stm32f4xx_ll_tim.h **** /**
1103:Drivers/STM32F4xx_HAL_Driver/Inc/stm32f4xx_ll_tim.h ****   * @}
1104:Drivers/STM32F4xx_HAL_Driver/Inc/stm32f4xx_ll_tim.h ****   */
1105:Drivers/STM32F4xx_HAL_Driver/Inc/stm32f4xx_ll_tim.h **** 
1106:Drivers/STM32F4xx_HAL_Driver/Inc/stm32f4xx_ll_tim.h **** 
1107:Drivers/STM32F4xx_HAL_Driver/Inc/stm32f4xx_ll_tim.h **** /**
1108:Drivers/STM32F4xx_HAL_Driver/Inc/stm32f4xx_ll_tim.h ****   * @}
1109:Drivers/STM32F4xx_HAL_Driver/Inc/stm32f4xx_ll_tim.h ****   */
1110:Drivers/STM32F4xx_HAL_Driver/Inc/stm32f4xx_ll_tim.h **** 
1111:Drivers/STM32F4xx_HAL_Driver/Inc/stm32f4xx_ll_tim.h **** /* Exported functions --------------------------------------------------------*/
1112:Drivers/STM32F4xx_HAL_Driver/Inc/stm32f4xx_ll_tim.h **** /** @defgroup TIM_LL_Exported_Functions TIM Exported Functions
1113:Drivers/STM32F4xx_HAL_Driver/Inc/stm32f4xx_ll_tim.h ****   * @{
1114:Drivers/STM32F4xx_HAL_Driver/Inc/stm32f4xx_ll_tim.h ****   */
1115:Drivers/STM32F4xx_HAL_Driver/Inc/stm32f4xx_ll_tim.h **** 
1116:Drivers/STM32F4xx_HAL_Driver/Inc/stm32f4xx_ll_tim.h **** /** @defgroup TIM_LL_EF_Time_Base Time Base configuration
1117:Drivers/STM32F4xx_HAL_Driver/Inc/stm32f4xx_ll_tim.h ****   * @{
1118:Drivers/STM32F4xx_HAL_Driver/Inc/stm32f4xx_ll_tim.h ****   */
1119:Drivers/STM32F4xx_HAL_Driver/Inc/stm32f4xx_ll_tim.h **** /**
1120:Drivers/STM32F4xx_HAL_Driver/Inc/stm32f4xx_ll_tim.h ****   * @brief  Enable timer counter.
1121:Drivers/STM32F4xx_HAL_Driver/Inc/stm32f4xx_ll_tim.h ****   * @rmtoll CR1          CEN           LL_TIM_EnableCounter
1122:Drivers/STM32F4xx_HAL_Driver/Inc/stm32f4xx_ll_tim.h ****   * @param  TIMx Timer instance
1123:Drivers/STM32F4xx_HAL_Driver/Inc/stm32f4xx_ll_tim.h ****   * @retval None
1124:Drivers/STM32F4xx_HAL_Driver/Inc/stm32f4xx_ll_tim.h ****   */
1125:Drivers/STM32F4xx_HAL_Driver/Inc/stm32f4xx_ll_tim.h **** __STATIC_INLINE void LL_TIM_EnableCounter(TIM_TypeDef *TIMx)
1126:Drivers/STM32F4xx_HAL_Driver/Inc/stm32f4xx_ll_tim.h **** {
1127:Drivers/STM32F4xx_HAL_Driver/Inc/stm32f4xx_ll_tim.h ****   SET_BIT(TIMx->CR1, TIM_CR1_CEN);
1128:Drivers/STM32F4xx_HAL_Driver/Inc/stm32f4xx_ll_tim.h **** }
1129:Drivers/STM32F4xx_HAL_Driver/Inc/stm32f4xx_ll_tim.h **** 
1130:Drivers/STM32F4xx_HAL_Driver/Inc/stm32f4xx_ll_tim.h **** /**
1131:Drivers/STM32F4xx_HAL_Driver/Inc/stm32f4xx_ll_tim.h ****   * @brief  Disable timer counter.
1132:Drivers/STM32F4xx_HAL_Driver/Inc/stm32f4xx_ll_tim.h ****   * @rmtoll CR1          CEN           LL_TIM_DisableCounter
1133:Drivers/STM32F4xx_HAL_Driver/Inc/stm32f4xx_ll_tim.h ****   * @param  TIMx Timer instance
1134:Drivers/STM32F4xx_HAL_Driver/Inc/stm32f4xx_ll_tim.h ****   * @retval None
1135:Drivers/STM32F4xx_HAL_Driver/Inc/stm32f4xx_ll_tim.h ****   */
1136:Drivers/STM32F4xx_HAL_Driver/Inc/stm32f4xx_ll_tim.h **** __STATIC_INLINE void LL_TIM_DisableCounter(TIM_TypeDef *TIMx)
1137:Drivers/STM32F4xx_HAL_Driver/Inc/stm32f4xx_ll_tim.h **** {
1138:Drivers/STM32F4xx_HAL_Driver/Inc/stm32f4xx_ll_tim.h ****   CLEAR_BIT(TIMx->CR1, TIM_CR1_CEN);
1139:Drivers/STM32F4xx_HAL_Driver/Inc/stm32f4xx_ll_tim.h **** }
1140:Drivers/STM32F4xx_HAL_Driver/Inc/stm32f4xx_ll_tim.h **** 
1141:Drivers/STM32F4xx_HAL_Driver/Inc/stm32f4xx_ll_tim.h **** /**
1142:Drivers/STM32F4xx_HAL_Driver/Inc/stm32f4xx_ll_tim.h ****   * @brief  Indicates whether the timer counter is enabled.
1143:Drivers/STM32F4xx_HAL_Driver/Inc/stm32f4xx_ll_tim.h ****   * @rmtoll CR1          CEN           LL_TIM_IsEnabledCounter
1144:Drivers/STM32F4xx_HAL_Driver/Inc/stm32f4xx_ll_tim.h ****   * @param  TIMx Timer instance
1145:Drivers/STM32F4xx_HAL_Driver/Inc/stm32f4xx_ll_tim.h ****   * @retval State of bit (1 or 0).
1146:Drivers/STM32F4xx_HAL_Driver/Inc/stm32f4xx_ll_tim.h ****   */
ARM GAS  C:\Users\paulp\AppData\Local\Temp\cc1vPtHZ.s 			page 31


1147:Drivers/STM32F4xx_HAL_Driver/Inc/stm32f4xx_ll_tim.h **** __STATIC_INLINE uint32_t LL_TIM_IsEnabledCounter(TIM_TypeDef *TIMx)
1148:Drivers/STM32F4xx_HAL_Driver/Inc/stm32f4xx_ll_tim.h **** {
1149:Drivers/STM32F4xx_HAL_Driver/Inc/stm32f4xx_ll_tim.h ****   return ((READ_BIT(TIMx->CR1, TIM_CR1_CEN) == (TIM_CR1_CEN)) ? 1UL : 0UL);
1150:Drivers/STM32F4xx_HAL_Driver/Inc/stm32f4xx_ll_tim.h **** }
1151:Drivers/STM32F4xx_HAL_Driver/Inc/stm32f4xx_ll_tim.h **** 
1152:Drivers/STM32F4xx_HAL_Driver/Inc/stm32f4xx_ll_tim.h **** /**
1153:Drivers/STM32F4xx_HAL_Driver/Inc/stm32f4xx_ll_tim.h ****   * @brief  Enable update event generation.
1154:Drivers/STM32F4xx_HAL_Driver/Inc/stm32f4xx_ll_tim.h ****   * @rmtoll CR1          UDIS          LL_TIM_EnableUpdateEvent
1155:Drivers/STM32F4xx_HAL_Driver/Inc/stm32f4xx_ll_tim.h ****   * @param  TIMx Timer instance
1156:Drivers/STM32F4xx_HAL_Driver/Inc/stm32f4xx_ll_tim.h ****   * @retval None
1157:Drivers/STM32F4xx_HAL_Driver/Inc/stm32f4xx_ll_tim.h ****   */
1158:Drivers/STM32F4xx_HAL_Driver/Inc/stm32f4xx_ll_tim.h **** __STATIC_INLINE void LL_TIM_EnableUpdateEvent(TIM_TypeDef *TIMx)
1159:Drivers/STM32F4xx_HAL_Driver/Inc/stm32f4xx_ll_tim.h **** {
1160:Drivers/STM32F4xx_HAL_Driver/Inc/stm32f4xx_ll_tim.h ****   CLEAR_BIT(TIMx->CR1, TIM_CR1_UDIS);
1161:Drivers/STM32F4xx_HAL_Driver/Inc/stm32f4xx_ll_tim.h **** }
1162:Drivers/STM32F4xx_HAL_Driver/Inc/stm32f4xx_ll_tim.h **** 
1163:Drivers/STM32F4xx_HAL_Driver/Inc/stm32f4xx_ll_tim.h **** /**
1164:Drivers/STM32F4xx_HAL_Driver/Inc/stm32f4xx_ll_tim.h ****   * @brief  Disable update event generation.
1165:Drivers/STM32F4xx_HAL_Driver/Inc/stm32f4xx_ll_tim.h ****   * @rmtoll CR1          UDIS          LL_TIM_DisableUpdateEvent
1166:Drivers/STM32F4xx_HAL_Driver/Inc/stm32f4xx_ll_tim.h ****   * @param  TIMx Timer instance
1167:Drivers/STM32F4xx_HAL_Driver/Inc/stm32f4xx_ll_tim.h ****   * @retval None
1168:Drivers/STM32F4xx_HAL_Driver/Inc/stm32f4xx_ll_tim.h ****   */
1169:Drivers/STM32F4xx_HAL_Driver/Inc/stm32f4xx_ll_tim.h **** __STATIC_INLINE void LL_TIM_DisableUpdateEvent(TIM_TypeDef *TIMx)
1170:Drivers/STM32F4xx_HAL_Driver/Inc/stm32f4xx_ll_tim.h **** {
1171:Drivers/STM32F4xx_HAL_Driver/Inc/stm32f4xx_ll_tim.h ****   SET_BIT(TIMx->CR1, TIM_CR1_UDIS);
1172:Drivers/STM32F4xx_HAL_Driver/Inc/stm32f4xx_ll_tim.h **** }
1173:Drivers/STM32F4xx_HAL_Driver/Inc/stm32f4xx_ll_tim.h **** 
1174:Drivers/STM32F4xx_HAL_Driver/Inc/stm32f4xx_ll_tim.h **** /**
1175:Drivers/STM32F4xx_HAL_Driver/Inc/stm32f4xx_ll_tim.h ****   * @brief  Indicates whether update event generation is enabled.
1176:Drivers/STM32F4xx_HAL_Driver/Inc/stm32f4xx_ll_tim.h ****   * @rmtoll CR1          UDIS          LL_TIM_IsEnabledUpdateEvent
1177:Drivers/STM32F4xx_HAL_Driver/Inc/stm32f4xx_ll_tim.h ****   * @param  TIMx Timer instance
1178:Drivers/STM32F4xx_HAL_Driver/Inc/stm32f4xx_ll_tim.h ****   * @retval Inverted state of bit (0 or 1).
1179:Drivers/STM32F4xx_HAL_Driver/Inc/stm32f4xx_ll_tim.h ****   */
1180:Drivers/STM32F4xx_HAL_Driver/Inc/stm32f4xx_ll_tim.h **** __STATIC_INLINE uint32_t LL_TIM_IsEnabledUpdateEvent(TIM_TypeDef *TIMx)
1181:Drivers/STM32F4xx_HAL_Driver/Inc/stm32f4xx_ll_tim.h **** {
1182:Drivers/STM32F4xx_HAL_Driver/Inc/stm32f4xx_ll_tim.h ****   return ((READ_BIT(TIMx->CR1, TIM_CR1_UDIS) == (uint32_t)RESET) ? 1UL : 0UL);
1183:Drivers/STM32F4xx_HAL_Driver/Inc/stm32f4xx_ll_tim.h **** }
1184:Drivers/STM32F4xx_HAL_Driver/Inc/stm32f4xx_ll_tim.h **** 
1185:Drivers/STM32F4xx_HAL_Driver/Inc/stm32f4xx_ll_tim.h **** /**
1186:Drivers/STM32F4xx_HAL_Driver/Inc/stm32f4xx_ll_tim.h ****   * @brief  Set update event source
1187:Drivers/STM32F4xx_HAL_Driver/Inc/stm32f4xx_ll_tim.h ****   * @note Update event source set to LL_TIM_UPDATESOURCE_REGULAR: any of the following events
1188:Drivers/STM32F4xx_HAL_Driver/Inc/stm32f4xx_ll_tim.h ****   *       generate an update interrupt or DMA request if enabled:
1189:Drivers/STM32F4xx_HAL_Driver/Inc/stm32f4xx_ll_tim.h ****   *        - Counter overflow/underflow
1190:Drivers/STM32F4xx_HAL_Driver/Inc/stm32f4xx_ll_tim.h ****   *        - Setting the UG bit
1191:Drivers/STM32F4xx_HAL_Driver/Inc/stm32f4xx_ll_tim.h ****   *        - Update generation through the slave mode controller
1192:Drivers/STM32F4xx_HAL_Driver/Inc/stm32f4xx_ll_tim.h ****   * @note Update event source set to LL_TIM_UPDATESOURCE_COUNTER: only counter
1193:Drivers/STM32F4xx_HAL_Driver/Inc/stm32f4xx_ll_tim.h ****   *       overflow/underflow generates an update interrupt or DMA request if enabled.
1194:Drivers/STM32F4xx_HAL_Driver/Inc/stm32f4xx_ll_tim.h ****   * @rmtoll CR1          URS           LL_TIM_SetUpdateSource
1195:Drivers/STM32F4xx_HAL_Driver/Inc/stm32f4xx_ll_tim.h ****   * @param  TIMx Timer instance
1196:Drivers/STM32F4xx_HAL_Driver/Inc/stm32f4xx_ll_tim.h ****   * @param  UpdateSource This parameter can be one of the following values:
1197:Drivers/STM32F4xx_HAL_Driver/Inc/stm32f4xx_ll_tim.h ****   *         @arg @ref LL_TIM_UPDATESOURCE_REGULAR
1198:Drivers/STM32F4xx_HAL_Driver/Inc/stm32f4xx_ll_tim.h ****   *         @arg @ref LL_TIM_UPDATESOURCE_COUNTER
1199:Drivers/STM32F4xx_HAL_Driver/Inc/stm32f4xx_ll_tim.h ****   * @retval None
1200:Drivers/STM32F4xx_HAL_Driver/Inc/stm32f4xx_ll_tim.h ****   */
1201:Drivers/STM32F4xx_HAL_Driver/Inc/stm32f4xx_ll_tim.h **** __STATIC_INLINE void LL_TIM_SetUpdateSource(TIM_TypeDef *TIMx, uint32_t UpdateSource)
1202:Drivers/STM32F4xx_HAL_Driver/Inc/stm32f4xx_ll_tim.h **** {
1203:Drivers/STM32F4xx_HAL_Driver/Inc/stm32f4xx_ll_tim.h ****   MODIFY_REG(TIMx->CR1, TIM_CR1_URS, UpdateSource);
ARM GAS  C:\Users\paulp\AppData\Local\Temp\cc1vPtHZ.s 			page 32


1204:Drivers/STM32F4xx_HAL_Driver/Inc/stm32f4xx_ll_tim.h **** }
1205:Drivers/STM32F4xx_HAL_Driver/Inc/stm32f4xx_ll_tim.h **** 
1206:Drivers/STM32F4xx_HAL_Driver/Inc/stm32f4xx_ll_tim.h **** /**
1207:Drivers/STM32F4xx_HAL_Driver/Inc/stm32f4xx_ll_tim.h ****   * @brief  Get actual event update source
1208:Drivers/STM32F4xx_HAL_Driver/Inc/stm32f4xx_ll_tim.h ****   * @rmtoll CR1          URS           LL_TIM_GetUpdateSource
1209:Drivers/STM32F4xx_HAL_Driver/Inc/stm32f4xx_ll_tim.h ****   * @param  TIMx Timer instance
1210:Drivers/STM32F4xx_HAL_Driver/Inc/stm32f4xx_ll_tim.h ****   * @retval Returned value can be one of the following values:
1211:Drivers/STM32F4xx_HAL_Driver/Inc/stm32f4xx_ll_tim.h ****   *         @arg @ref LL_TIM_UPDATESOURCE_REGULAR
1212:Drivers/STM32F4xx_HAL_Driver/Inc/stm32f4xx_ll_tim.h ****   *         @arg @ref LL_TIM_UPDATESOURCE_COUNTER
1213:Drivers/STM32F4xx_HAL_Driver/Inc/stm32f4xx_ll_tim.h ****   */
1214:Drivers/STM32F4xx_HAL_Driver/Inc/stm32f4xx_ll_tim.h **** __STATIC_INLINE uint32_t LL_TIM_GetUpdateSource(TIM_TypeDef *TIMx)
1215:Drivers/STM32F4xx_HAL_Driver/Inc/stm32f4xx_ll_tim.h **** {
1216:Drivers/STM32F4xx_HAL_Driver/Inc/stm32f4xx_ll_tim.h ****   return (uint32_t)(READ_BIT(TIMx->CR1, TIM_CR1_URS));
1217:Drivers/STM32F4xx_HAL_Driver/Inc/stm32f4xx_ll_tim.h **** }
1218:Drivers/STM32F4xx_HAL_Driver/Inc/stm32f4xx_ll_tim.h **** 
1219:Drivers/STM32F4xx_HAL_Driver/Inc/stm32f4xx_ll_tim.h **** /**
1220:Drivers/STM32F4xx_HAL_Driver/Inc/stm32f4xx_ll_tim.h ****   * @brief  Set one pulse mode (one shot v.s. repetitive).
1221:Drivers/STM32F4xx_HAL_Driver/Inc/stm32f4xx_ll_tim.h ****   * @rmtoll CR1          OPM           LL_TIM_SetOnePulseMode
1222:Drivers/STM32F4xx_HAL_Driver/Inc/stm32f4xx_ll_tim.h ****   * @param  TIMx Timer instance
1223:Drivers/STM32F4xx_HAL_Driver/Inc/stm32f4xx_ll_tim.h ****   * @param  OnePulseMode This parameter can be one of the following values:
1224:Drivers/STM32F4xx_HAL_Driver/Inc/stm32f4xx_ll_tim.h ****   *         @arg @ref LL_TIM_ONEPULSEMODE_SINGLE
1225:Drivers/STM32F4xx_HAL_Driver/Inc/stm32f4xx_ll_tim.h ****   *         @arg @ref LL_TIM_ONEPULSEMODE_REPETITIVE
1226:Drivers/STM32F4xx_HAL_Driver/Inc/stm32f4xx_ll_tim.h ****   * @retval None
1227:Drivers/STM32F4xx_HAL_Driver/Inc/stm32f4xx_ll_tim.h ****   */
1228:Drivers/STM32F4xx_HAL_Driver/Inc/stm32f4xx_ll_tim.h **** __STATIC_INLINE void LL_TIM_SetOnePulseMode(TIM_TypeDef *TIMx, uint32_t OnePulseMode)
1229:Drivers/STM32F4xx_HAL_Driver/Inc/stm32f4xx_ll_tim.h **** {
1230:Drivers/STM32F4xx_HAL_Driver/Inc/stm32f4xx_ll_tim.h ****   MODIFY_REG(TIMx->CR1, TIM_CR1_OPM, OnePulseMode);
1231:Drivers/STM32F4xx_HAL_Driver/Inc/stm32f4xx_ll_tim.h **** }
1232:Drivers/STM32F4xx_HAL_Driver/Inc/stm32f4xx_ll_tim.h **** 
1233:Drivers/STM32F4xx_HAL_Driver/Inc/stm32f4xx_ll_tim.h **** /**
1234:Drivers/STM32F4xx_HAL_Driver/Inc/stm32f4xx_ll_tim.h ****   * @brief  Get actual one pulse mode.
1235:Drivers/STM32F4xx_HAL_Driver/Inc/stm32f4xx_ll_tim.h ****   * @rmtoll CR1          OPM           LL_TIM_GetOnePulseMode
1236:Drivers/STM32F4xx_HAL_Driver/Inc/stm32f4xx_ll_tim.h ****   * @param  TIMx Timer instance
1237:Drivers/STM32F4xx_HAL_Driver/Inc/stm32f4xx_ll_tim.h ****   * @retval Returned value can be one of the following values:
1238:Drivers/STM32F4xx_HAL_Driver/Inc/stm32f4xx_ll_tim.h ****   *         @arg @ref LL_TIM_ONEPULSEMODE_SINGLE
1239:Drivers/STM32F4xx_HAL_Driver/Inc/stm32f4xx_ll_tim.h ****   *         @arg @ref LL_TIM_ONEPULSEMODE_REPETITIVE
1240:Drivers/STM32F4xx_HAL_Driver/Inc/stm32f4xx_ll_tim.h ****   */
1241:Drivers/STM32F4xx_HAL_Driver/Inc/stm32f4xx_ll_tim.h **** __STATIC_INLINE uint32_t LL_TIM_GetOnePulseMode(TIM_TypeDef *TIMx)
1242:Drivers/STM32F4xx_HAL_Driver/Inc/stm32f4xx_ll_tim.h **** {
1243:Drivers/STM32F4xx_HAL_Driver/Inc/stm32f4xx_ll_tim.h ****   return (uint32_t)(READ_BIT(TIMx->CR1, TIM_CR1_OPM));
1244:Drivers/STM32F4xx_HAL_Driver/Inc/stm32f4xx_ll_tim.h **** }
1245:Drivers/STM32F4xx_HAL_Driver/Inc/stm32f4xx_ll_tim.h **** 
1246:Drivers/STM32F4xx_HAL_Driver/Inc/stm32f4xx_ll_tim.h **** /**
1247:Drivers/STM32F4xx_HAL_Driver/Inc/stm32f4xx_ll_tim.h ****   * @brief  Set the timer counter counting mode.
1248:Drivers/STM32F4xx_HAL_Driver/Inc/stm32f4xx_ll_tim.h ****   * @note Macro IS_TIM_COUNTER_MODE_SELECT_INSTANCE(TIMx) can be used to
1249:Drivers/STM32F4xx_HAL_Driver/Inc/stm32f4xx_ll_tim.h ****   *       check whether or not the counter mode selection feature is supported
1250:Drivers/STM32F4xx_HAL_Driver/Inc/stm32f4xx_ll_tim.h ****   *       by a timer instance.
1251:Drivers/STM32F4xx_HAL_Driver/Inc/stm32f4xx_ll_tim.h ****   * @note Switching from Center Aligned counter mode to Edge counter mode (or reverse)
1252:Drivers/STM32F4xx_HAL_Driver/Inc/stm32f4xx_ll_tim.h ****   *       requires a timer reset to avoid unexpected direction
1253:Drivers/STM32F4xx_HAL_Driver/Inc/stm32f4xx_ll_tim.h ****   *       due to DIR bit readonly in center aligned mode.
1254:Drivers/STM32F4xx_HAL_Driver/Inc/stm32f4xx_ll_tim.h ****   * @rmtoll CR1          DIR           LL_TIM_SetCounterMode\n
1255:Drivers/STM32F4xx_HAL_Driver/Inc/stm32f4xx_ll_tim.h ****   *         CR1          CMS           LL_TIM_SetCounterMode
1256:Drivers/STM32F4xx_HAL_Driver/Inc/stm32f4xx_ll_tim.h ****   * @param  TIMx Timer instance
1257:Drivers/STM32F4xx_HAL_Driver/Inc/stm32f4xx_ll_tim.h ****   * @param  CounterMode This parameter can be one of the following values:
1258:Drivers/STM32F4xx_HAL_Driver/Inc/stm32f4xx_ll_tim.h ****   *         @arg @ref LL_TIM_COUNTERMODE_UP
1259:Drivers/STM32F4xx_HAL_Driver/Inc/stm32f4xx_ll_tim.h ****   *         @arg @ref LL_TIM_COUNTERMODE_DOWN
1260:Drivers/STM32F4xx_HAL_Driver/Inc/stm32f4xx_ll_tim.h ****   *         @arg @ref LL_TIM_COUNTERMODE_CENTER_UP
ARM GAS  C:\Users\paulp\AppData\Local\Temp\cc1vPtHZ.s 			page 33


1261:Drivers/STM32F4xx_HAL_Driver/Inc/stm32f4xx_ll_tim.h ****   *         @arg @ref LL_TIM_COUNTERMODE_CENTER_DOWN
1262:Drivers/STM32F4xx_HAL_Driver/Inc/stm32f4xx_ll_tim.h ****   *         @arg @ref LL_TIM_COUNTERMODE_CENTER_UP_DOWN
1263:Drivers/STM32F4xx_HAL_Driver/Inc/stm32f4xx_ll_tim.h ****   * @retval None
1264:Drivers/STM32F4xx_HAL_Driver/Inc/stm32f4xx_ll_tim.h ****   */
1265:Drivers/STM32F4xx_HAL_Driver/Inc/stm32f4xx_ll_tim.h **** __STATIC_INLINE void LL_TIM_SetCounterMode(TIM_TypeDef *TIMx, uint32_t CounterMode)
1266:Drivers/STM32F4xx_HAL_Driver/Inc/stm32f4xx_ll_tim.h **** {
1267:Drivers/STM32F4xx_HAL_Driver/Inc/stm32f4xx_ll_tim.h ****   MODIFY_REG(TIMx->CR1, (TIM_CR1_DIR | TIM_CR1_CMS), CounterMode);
1268:Drivers/STM32F4xx_HAL_Driver/Inc/stm32f4xx_ll_tim.h **** }
1269:Drivers/STM32F4xx_HAL_Driver/Inc/stm32f4xx_ll_tim.h **** 
1270:Drivers/STM32F4xx_HAL_Driver/Inc/stm32f4xx_ll_tim.h **** /**
1271:Drivers/STM32F4xx_HAL_Driver/Inc/stm32f4xx_ll_tim.h ****   * @brief  Get actual counter mode.
1272:Drivers/STM32F4xx_HAL_Driver/Inc/stm32f4xx_ll_tim.h ****   * @note Macro IS_TIM_COUNTER_MODE_SELECT_INSTANCE(TIMx) can be used to
1273:Drivers/STM32F4xx_HAL_Driver/Inc/stm32f4xx_ll_tim.h ****   *       check whether or not the counter mode selection feature is supported
1274:Drivers/STM32F4xx_HAL_Driver/Inc/stm32f4xx_ll_tim.h ****   *       by a timer instance.
1275:Drivers/STM32F4xx_HAL_Driver/Inc/stm32f4xx_ll_tim.h ****   * @rmtoll CR1          DIR           LL_TIM_GetCounterMode\n
1276:Drivers/STM32F4xx_HAL_Driver/Inc/stm32f4xx_ll_tim.h ****   *         CR1          CMS           LL_TIM_GetCounterMode
1277:Drivers/STM32F4xx_HAL_Driver/Inc/stm32f4xx_ll_tim.h ****   * @param  TIMx Timer instance
1278:Drivers/STM32F4xx_HAL_Driver/Inc/stm32f4xx_ll_tim.h ****   * @retval Returned value can be one of the following values:
1279:Drivers/STM32F4xx_HAL_Driver/Inc/stm32f4xx_ll_tim.h ****   *         @arg @ref LL_TIM_COUNTERMODE_UP
1280:Drivers/STM32F4xx_HAL_Driver/Inc/stm32f4xx_ll_tim.h ****   *         @arg @ref LL_TIM_COUNTERMODE_DOWN
1281:Drivers/STM32F4xx_HAL_Driver/Inc/stm32f4xx_ll_tim.h ****   *         @arg @ref LL_TIM_COUNTERMODE_CENTER_UP
1282:Drivers/STM32F4xx_HAL_Driver/Inc/stm32f4xx_ll_tim.h ****   *         @arg @ref LL_TIM_COUNTERMODE_CENTER_DOWN
1283:Drivers/STM32F4xx_HAL_Driver/Inc/stm32f4xx_ll_tim.h ****   *         @arg @ref LL_TIM_COUNTERMODE_CENTER_UP_DOWN
1284:Drivers/STM32F4xx_HAL_Driver/Inc/stm32f4xx_ll_tim.h ****   */
1285:Drivers/STM32F4xx_HAL_Driver/Inc/stm32f4xx_ll_tim.h **** __STATIC_INLINE uint32_t LL_TIM_GetCounterMode(TIM_TypeDef *TIMx)
1286:Drivers/STM32F4xx_HAL_Driver/Inc/stm32f4xx_ll_tim.h **** {
1287:Drivers/STM32F4xx_HAL_Driver/Inc/stm32f4xx_ll_tim.h ****   uint32_t counter_mode;
1288:Drivers/STM32F4xx_HAL_Driver/Inc/stm32f4xx_ll_tim.h **** 
1289:Drivers/STM32F4xx_HAL_Driver/Inc/stm32f4xx_ll_tim.h ****   counter_mode = (uint32_t)(READ_BIT(TIMx->CR1, TIM_CR1_CMS));
1290:Drivers/STM32F4xx_HAL_Driver/Inc/stm32f4xx_ll_tim.h **** 
1291:Drivers/STM32F4xx_HAL_Driver/Inc/stm32f4xx_ll_tim.h ****   if (counter_mode == 0U)
1292:Drivers/STM32F4xx_HAL_Driver/Inc/stm32f4xx_ll_tim.h ****   {
1293:Drivers/STM32F4xx_HAL_Driver/Inc/stm32f4xx_ll_tim.h ****     counter_mode = (uint32_t)(READ_BIT(TIMx->CR1, TIM_CR1_DIR));
1294:Drivers/STM32F4xx_HAL_Driver/Inc/stm32f4xx_ll_tim.h ****   }
1295:Drivers/STM32F4xx_HAL_Driver/Inc/stm32f4xx_ll_tim.h **** 
1296:Drivers/STM32F4xx_HAL_Driver/Inc/stm32f4xx_ll_tim.h ****   return counter_mode;
1297:Drivers/STM32F4xx_HAL_Driver/Inc/stm32f4xx_ll_tim.h **** }
1298:Drivers/STM32F4xx_HAL_Driver/Inc/stm32f4xx_ll_tim.h **** 
1299:Drivers/STM32F4xx_HAL_Driver/Inc/stm32f4xx_ll_tim.h **** /**
1300:Drivers/STM32F4xx_HAL_Driver/Inc/stm32f4xx_ll_tim.h ****   * @brief  Enable auto-reload (ARR) preload.
1301:Drivers/STM32F4xx_HAL_Driver/Inc/stm32f4xx_ll_tim.h ****   * @rmtoll CR1          ARPE          LL_TIM_EnableARRPreload
1302:Drivers/STM32F4xx_HAL_Driver/Inc/stm32f4xx_ll_tim.h ****   * @param  TIMx Timer instance
1303:Drivers/STM32F4xx_HAL_Driver/Inc/stm32f4xx_ll_tim.h ****   * @retval None
1304:Drivers/STM32F4xx_HAL_Driver/Inc/stm32f4xx_ll_tim.h ****   */
1305:Drivers/STM32F4xx_HAL_Driver/Inc/stm32f4xx_ll_tim.h **** __STATIC_INLINE void LL_TIM_EnableARRPreload(TIM_TypeDef *TIMx)
1306:Drivers/STM32F4xx_HAL_Driver/Inc/stm32f4xx_ll_tim.h **** {
1307:Drivers/STM32F4xx_HAL_Driver/Inc/stm32f4xx_ll_tim.h ****   SET_BIT(TIMx->CR1, TIM_CR1_ARPE);
1308:Drivers/STM32F4xx_HAL_Driver/Inc/stm32f4xx_ll_tim.h **** }
1309:Drivers/STM32F4xx_HAL_Driver/Inc/stm32f4xx_ll_tim.h **** 
1310:Drivers/STM32F4xx_HAL_Driver/Inc/stm32f4xx_ll_tim.h **** /**
1311:Drivers/STM32F4xx_HAL_Driver/Inc/stm32f4xx_ll_tim.h ****   * @brief  Disable auto-reload (ARR) preload.
1312:Drivers/STM32F4xx_HAL_Driver/Inc/stm32f4xx_ll_tim.h ****   * @rmtoll CR1          ARPE          LL_TIM_DisableARRPreload
1313:Drivers/STM32F4xx_HAL_Driver/Inc/stm32f4xx_ll_tim.h ****   * @param  TIMx Timer instance
1314:Drivers/STM32F4xx_HAL_Driver/Inc/stm32f4xx_ll_tim.h ****   * @retval None
1315:Drivers/STM32F4xx_HAL_Driver/Inc/stm32f4xx_ll_tim.h ****   */
1316:Drivers/STM32F4xx_HAL_Driver/Inc/stm32f4xx_ll_tim.h **** __STATIC_INLINE void LL_TIM_DisableARRPreload(TIM_TypeDef *TIMx)
1317:Drivers/STM32F4xx_HAL_Driver/Inc/stm32f4xx_ll_tim.h **** {
ARM GAS  C:\Users\paulp\AppData\Local\Temp\cc1vPtHZ.s 			page 34


1318:Drivers/STM32F4xx_HAL_Driver/Inc/stm32f4xx_ll_tim.h ****   CLEAR_BIT(TIMx->CR1, TIM_CR1_ARPE);
1319:Drivers/STM32F4xx_HAL_Driver/Inc/stm32f4xx_ll_tim.h **** }
1320:Drivers/STM32F4xx_HAL_Driver/Inc/stm32f4xx_ll_tim.h **** 
1321:Drivers/STM32F4xx_HAL_Driver/Inc/stm32f4xx_ll_tim.h **** /**
1322:Drivers/STM32F4xx_HAL_Driver/Inc/stm32f4xx_ll_tim.h ****   * @brief  Indicates whether auto-reload (ARR) preload is enabled.
1323:Drivers/STM32F4xx_HAL_Driver/Inc/stm32f4xx_ll_tim.h ****   * @rmtoll CR1          ARPE          LL_TIM_IsEnabledARRPreload
1324:Drivers/STM32F4xx_HAL_Driver/Inc/stm32f4xx_ll_tim.h ****   * @param  TIMx Timer instance
1325:Drivers/STM32F4xx_HAL_Driver/Inc/stm32f4xx_ll_tim.h ****   * @retval State of bit (1 or 0).
1326:Drivers/STM32F4xx_HAL_Driver/Inc/stm32f4xx_ll_tim.h ****   */
1327:Drivers/STM32F4xx_HAL_Driver/Inc/stm32f4xx_ll_tim.h **** __STATIC_INLINE uint32_t LL_TIM_IsEnabledARRPreload(TIM_TypeDef *TIMx)
1328:Drivers/STM32F4xx_HAL_Driver/Inc/stm32f4xx_ll_tim.h **** {
1329:Drivers/STM32F4xx_HAL_Driver/Inc/stm32f4xx_ll_tim.h ****   return ((READ_BIT(TIMx->CR1, TIM_CR1_ARPE) == (TIM_CR1_ARPE)) ? 1UL : 0UL);
1330:Drivers/STM32F4xx_HAL_Driver/Inc/stm32f4xx_ll_tim.h **** }
1331:Drivers/STM32F4xx_HAL_Driver/Inc/stm32f4xx_ll_tim.h **** 
1332:Drivers/STM32F4xx_HAL_Driver/Inc/stm32f4xx_ll_tim.h **** /**
1333:Drivers/STM32F4xx_HAL_Driver/Inc/stm32f4xx_ll_tim.h ****   * @brief  Set the division ratio between the timer clock  and the sampling clock used by the dead
1334:Drivers/STM32F4xx_HAL_Driver/Inc/stm32f4xx_ll_tim.h ****   *         (when supported) and the digital filters.
1335:Drivers/STM32F4xx_HAL_Driver/Inc/stm32f4xx_ll_tim.h ****   * @note Macro IS_TIM_CLOCK_DIVISION_INSTANCE(TIMx) can be used to check
1336:Drivers/STM32F4xx_HAL_Driver/Inc/stm32f4xx_ll_tim.h ****   *       whether or not the clock division feature is supported by the timer
1337:Drivers/STM32F4xx_HAL_Driver/Inc/stm32f4xx_ll_tim.h ****   *       instance.
1338:Drivers/STM32F4xx_HAL_Driver/Inc/stm32f4xx_ll_tim.h ****   * @rmtoll CR1          CKD           LL_TIM_SetClockDivision
1339:Drivers/STM32F4xx_HAL_Driver/Inc/stm32f4xx_ll_tim.h ****   * @param  TIMx Timer instance
1340:Drivers/STM32F4xx_HAL_Driver/Inc/stm32f4xx_ll_tim.h ****   * @param  ClockDivision This parameter can be one of the following values:
1341:Drivers/STM32F4xx_HAL_Driver/Inc/stm32f4xx_ll_tim.h ****   *         @arg @ref LL_TIM_CLOCKDIVISION_DIV1
1342:Drivers/STM32F4xx_HAL_Driver/Inc/stm32f4xx_ll_tim.h ****   *         @arg @ref LL_TIM_CLOCKDIVISION_DIV2
1343:Drivers/STM32F4xx_HAL_Driver/Inc/stm32f4xx_ll_tim.h ****   *         @arg @ref LL_TIM_CLOCKDIVISION_DIV4
1344:Drivers/STM32F4xx_HAL_Driver/Inc/stm32f4xx_ll_tim.h ****   * @retval None
1345:Drivers/STM32F4xx_HAL_Driver/Inc/stm32f4xx_ll_tim.h ****   */
1346:Drivers/STM32F4xx_HAL_Driver/Inc/stm32f4xx_ll_tim.h **** __STATIC_INLINE void LL_TIM_SetClockDivision(TIM_TypeDef *TIMx, uint32_t ClockDivision)
1347:Drivers/STM32F4xx_HAL_Driver/Inc/stm32f4xx_ll_tim.h **** {
1348:Drivers/STM32F4xx_HAL_Driver/Inc/stm32f4xx_ll_tim.h ****   MODIFY_REG(TIMx->CR1, TIM_CR1_CKD, ClockDivision);
1349:Drivers/STM32F4xx_HAL_Driver/Inc/stm32f4xx_ll_tim.h **** }
1350:Drivers/STM32F4xx_HAL_Driver/Inc/stm32f4xx_ll_tim.h **** 
1351:Drivers/STM32F4xx_HAL_Driver/Inc/stm32f4xx_ll_tim.h **** /**
1352:Drivers/STM32F4xx_HAL_Driver/Inc/stm32f4xx_ll_tim.h ****   * @brief  Get the actual division ratio between the timer clock  and the sampling clock used by t
1353:Drivers/STM32F4xx_HAL_Driver/Inc/stm32f4xx_ll_tim.h ****   *         generators (when supported) and the digital filters.
1354:Drivers/STM32F4xx_HAL_Driver/Inc/stm32f4xx_ll_tim.h ****   * @note Macro IS_TIM_CLOCK_DIVISION_INSTANCE(TIMx) can be used to check
1355:Drivers/STM32F4xx_HAL_Driver/Inc/stm32f4xx_ll_tim.h ****   *       whether or not the clock division feature is supported by the timer
1356:Drivers/STM32F4xx_HAL_Driver/Inc/stm32f4xx_ll_tim.h ****   *       instance.
1357:Drivers/STM32F4xx_HAL_Driver/Inc/stm32f4xx_ll_tim.h ****   * @rmtoll CR1          CKD           LL_TIM_GetClockDivision
1358:Drivers/STM32F4xx_HAL_Driver/Inc/stm32f4xx_ll_tim.h ****   * @param  TIMx Timer instance
1359:Drivers/STM32F4xx_HAL_Driver/Inc/stm32f4xx_ll_tim.h ****   * @retval Returned value can be one of the following values:
1360:Drivers/STM32F4xx_HAL_Driver/Inc/stm32f4xx_ll_tim.h ****   *         @arg @ref LL_TIM_CLOCKDIVISION_DIV1
1361:Drivers/STM32F4xx_HAL_Driver/Inc/stm32f4xx_ll_tim.h ****   *         @arg @ref LL_TIM_CLOCKDIVISION_DIV2
1362:Drivers/STM32F4xx_HAL_Driver/Inc/stm32f4xx_ll_tim.h ****   *         @arg @ref LL_TIM_CLOCKDIVISION_DIV4
1363:Drivers/STM32F4xx_HAL_Driver/Inc/stm32f4xx_ll_tim.h ****   */
1364:Drivers/STM32F4xx_HAL_Driver/Inc/stm32f4xx_ll_tim.h **** __STATIC_INLINE uint32_t LL_TIM_GetClockDivision(TIM_TypeDef *TIMx)
1365:Drivers/STM32F4xx_HAL_Driver/Inc/stm32f4xx_ll_tim.h **** {
1366:Drivers/STM32F4xx_HAL_Driver/Inc/stm32f4xx_ll_tim.h ****   return (uint32_t)(READ_BIT(TIMx->CR1, TIM_CR1_CKD));
1367:Drivers/STM32F4xx_HAL_Driver/Inc/stm32f4xx_ll_tim.h **** }
1368:Drivers/STM32F4xx_HAL_Driver/Inc/stm32f4xx_ll_tim.h **** 
1369:Drivers/STM32F4xx_HAL_Driver/Inc/stm32f4xx_ll_tim.h **** /**
1370:Drivers/STM32F4xx_HAL_Driver/Inc/stm32f4xx_ll_tim.h ****   * @brief  Set the counter value.
1371:Drivers/STM32F4xx_HAL_Driver/Inc/stm32f4xx_ll_tim.h ****   * @note Macro IS_TIM_32B_COUNTER_INSTANCE(TIMx) can be used to check
1372:Drivers/STM32F4xx_HAL_Driver/Inc/stm32f4xx_ll_tim.h ****   *       whether or not a timer instance supports a 32 bits counter.
1373:Drivers/STM32F4xx_HAL_Driver/Inc/stm32f4xx_ll_tim.h ****   * @rmtoll CNT          CNT           LL_TIM_SetCounter
1374:Drivers/STM32F4xx_HAL_Driver/Inc/stm32f4xx_ll_tim.h ****   * @param  TIMx Timer instance
ARM GAS  C:\Users\paulp\AppData\Local\Temp\cc1vPtHZ.s 			page 35


1375:Drivers/STM32F4xx_HAL_Driver/Inc/stm32f4xx_ll_tim.h ****   * @param  Counter Counter value (between Min_Data=0 and Max_Data=0xFFFF or 0xFFFFFFFF)
1376:Drivers/STM32F4xx_HAL_Driver/Inc/stm32f4xx_ll_tim.h ****   * @retval None
1377:Drivers/STM32F4xx_HAL_Driver/Inc/stm32f4xx_ll_tim.h ****   */
1378:Drivers/STM32F4xx_HAL_Driver/Inc/stm32f4xx_ll_tim.h **** __STATIC_INLINE void LL_TIM_SetCounter(TIM_TypeDef *TIMx, uint32_t Counter)
1379:Drivers/STM32F4xx_HAL_Driver/Inc/stm32f4xx_ll_tim.h **** {
1380:Drivers/STM32F4xx_HAL_Driver/Inc/stm32f4xx_ll_tim.h ****   WRITE_REG(TIMx->CNT, Counter);
1381:Drivers/STM32F4xx_HAL_Driver/Inc/stm32f4xx_ll_tim.h **** }
1382:Drivers/STM32F4xx_HAL_Driver/Inc/stm32f4xx_ll_tim.h **** 
1383:Drivers/STM32F4xx_HAL_Driver/Inc/stm32f4xx_ll_tim.h **** /**
1384:Drivers/STM32F4xx_HAL_Driver/Inc/stm32f4xx_ll_tim.h ****   * @brief  Get the counter value.
1385:Drivers/STM32F4xx_HAL_Driver/Inc/stm32f4xx_ll_tim.h ****   * @note Macro IS_TIM_32B_COUNTER_INSTANCE(TIMx) can be used to check
1386:Drivers/STM32F4xx_HAL_Driver/Inc/stm32f4xx_ll_tim.h ****   *       whether or not a timer instance supports a 32 bits counter.
1387:Drivers/STM32F4xx_HAL_Driver/Inc/stm32f4xx_ll_tim.h ****   * @rmtoll CNT          CNT           LL_TIM_GetCounter
1388:Drivers/STM32F4xx_HAL_Driver/Inc/stm32f4xx_ll_tim.h ****   * @param  TIMx Timer instance
1389:Drivers/STM32F4xx_HAL_Driver/Inc/stm32f4xx_ll_tim.h ****   * @retval Counter value (between Min_Data=0 and Max_Data=0xFFFF or 0xFFFFFFFF)
1390:Drivers/STM32F4xx_HAL_Driver/Inc/stm32f4xx_ll_tim.h ****   */
1391:Drivers/STM32F4xx_HAL_Driver/Inc/stm32f4xx_ll_tim.h **** __STATIC_INLINE uint32_t LL_TIM_GetCounter(TIM_TypeDef *TIMx)
 485              		.loc 2 1391 26 view .LVU53
 486              	.LBB12:
1392:Drivers/STM32F4xx_HAL_Driver/Inc/stm32f4xx_ll_tim.h **** {
1393:Drivers/STM32F4xx_HAL_Driver/Inc/stm32f4xx_ll_tim.h ****   return (uint32_t)(READ_REG(TIMx->CNT));
 487              		.loc 2 1393 3 view .LVU54
 488              		.loc 2 1393 10 is_stmt 0 view .LVU55
 489 000a 9F4B     		ldr	r3, .L54+8
 490 000c 586A     		ldr	r0, [r3, #36]
 491              	.LVL25:
 492              		.loc 2 1393 10 view .LVU56
 493              	.LBE12:
 494              	.LBE11:
 495              		.loc 1 73 5 view .LVU57
 496 000e FFF7FEFF 		bl	srand
 497              	.LVL26:
  74:Core/Src/game.c **** 
  75:Core/Src/game.c **** 
  76:Core/Src/game.c ****         /* VARIABLES */
  77:Core/Src/game.c ****     /* for the display */
  78:Core/Src/game.c ****     char charScore[6];
 498              		.loc 1 78 5 is_stmt 1 view .LVU58
  79:Core/Src/game.c ****     char charNbDeletedLines[3];
 499              		.loc 1 79 5 view .LVU59
  80:Core/Src/game.c ****     int timeDisplay  = 0;
 500              		.loc 1 80 5 view .LVU60
  81:Core/Src/game.c ****     int startDisplay = 0;
 501              		.loc 1 81 5 view .LVU61
  82:Core/Src/game.c ****     /* for the game */
  83:Core/Src/game.c ****     int score          = 0;
 502              		.loc 1 83 5 view .LVU62
  84:Core/Src/game.c ****     int nbDeletedLines = 0;
 503              		.loc 1 84 5 view .LVU63
  85:Core/Src/game.c ****     int nextPiece      = rand()%7;      // next tetromino
 504              		.loc 1 85 5 view .LVU64
 505              		.loc 1 85 26 is_stmt 0 view .LVU65
 506 0012 FFF7FEFF 		bl	rand
 507              	.LVL27:
 508              		.loc 1 85 9 view .LVU66
 509 0016 9D4E     		ldr	r6, .L54+12
 510 0018 86FB0037 		smull	r3, r7, r6, r0
ARM GAS  C:\Users\paulp\AppData\Local\Temp\cc1vPtHZ.s 			page 36


 511 001c 3B18     		adds	r3, r7, r0
 512 001e C717     		asrs	r7, r0, #31
 513 0020 C7EBA307 		rsb	r7, r7, r3, asr #2
 514 0024 C7EBC707 		rsb	r7, r7, r7, lsl #3
 515 0028 C71B     		subs	r7, r0, r7
 516              	.LVL28:
  86:Core/Src/game.c ****     int rythm          = INITIAL_RYTHM; // falling rythm of the tetromino
 517              		.loc 1 86 5 is_stmt 1 view .LVU67
  87:Core/Src/game.c ****     int speedUpCounter = 0;             // counting to know when reduce the rythm
 518              		.loc 1 87 5 view .LVU68
  88:Core/Src/game.c ****     
  89:Core/Src/game.c ****     /* game area display */
  90:Core/Src/game.c ****     fillScreen(BLACK);
 519              		.loc 1 90 5 view .LVU69
 520 002a 0020     		movs	r0, #0
 521 002c FFF7FEFF 		bl	fillScreen
 522              	.LVL29:
  91:Core/Src/game.c ****     printBorders();
 523              		.loc 1 91 5 view .LVU70
 524 0030 FFF7FEFF 		bl	printBorders
 525              	.LVL30:
  92:Core/Src/game.c **** 
  93:Core/Src/game.c ****     /* score display */
  94:Core/Src/game.c ****     DrawText("Score: ", 140, 150, WHITE, 2, BLACK);
 526              		.loc 1 94 5 view .LVU71
 527 0034 0025     		movs	r5, #0
 528 0036 0195     		str	r5, [sp, #4]
 529 0038 0223     		movs	r3, #2
 530 003a 0093     		str	r3, [sp]
 531 003c 4FF6FF73 		movw	r3, #65535
 532 0040 9622     		movs	r2, #150
 533 0042 8C21     		movs	r1, #140
 534 0044 9248     		ldr	r0, .L54+16
 535 0046 FFF7FEFF 		bl	DrawText
 536              	.LVL31:
  95:Core/Src/game.c ****     displayScore(score);
 537              		.loc 1 95 5 view .LVU72
 538 004a 2846     		mov	r0, r5
 539 004c FFF7FEFF 		bl	displayScore
 540              	.LVL32:
  96:Core/Src/game.c **** 
  97:Core/Src/game.c ****     /* initializing the game */
  98:Core/Src/game.c ****     initBoard(&board);
 541              		.loc 1 98 5 view .LVU73
 542 0050 904C     		ldr	r4, .L54+20
 543 0052 2046     		mov	r0, r4
 544 0054 FFF7FEFF 		bl	initBoard
 545              	.LVL33:
  99:Core/Src/game.c **** 
 100:Core/Src/game.c ****     /* starting the game */
 101:Core/Src/game.c ****     initPiece(&piece, rand()%7, 0);
 546              		.loc 1 101 5 view .LVU74
 547              		.loc 1 101 23 is_stmt 0 view .LVU75
 548 0058 FFF7FEFF 		bl	rand
 549              	.LVL34:
 550              		.loc 1 101 5 view .LVU76
 551 005c 86FB0023 		smull	r2, r3, r6, r0
ARM GAS  C:\Users\paulp\AppData\Local\Temp\cc1vPtHZ.s 			page 37


 552 0060 1918     		adds	r1, r3, r0
 553 0062 C317     		asrs	r3, r0, #31
 554 0064 C3EBA103 		rsb	r3, r3, r1, asr #2
 555 0068 C3EBC303 		rsb	r3, r3, r3, lsl #3
 556 006c 8A4E     		ldr	r6, .L54+24
 557 006e 2A46     		mov	r2, r5
 558 0070 C11A     		subs	r1, r0, r3
 559 0072 3046     		mov	r0, r6
 560 0074 FFF7FEFF 		bl	initPiece
 561              	.LVL35:
 102:Core/Src/game.c ****     newPiece(&board, &piece);
 562              		.loc 1 102 5 is_stmt 1 view .LVU77
 563 0078 3146     		mov	r1, r6
 564 007a 2046     		mov	r0, r4
 565 007c FFF7FEFF 		bl	newPiece
 566              	.LVL36:
 103:Core/Src/game.c ****     printNextPiece(nextPiece);
 567              		.loc 1 103 5 view .LVU78
 568 0080 3846     		mov	r0, r7
 569 0082 FFF7FEFF 		bl	printNextPiece
 570              	.LVL37:
 104:Core/Src/game.c **** 
 105:Core/Src/game.c ****     gameOver = 0;
 571              		.loc 1 105 5 view .LVU79
 572              		.loc 1 105 14 is_stmt 0 view .LVU80
 573 0086 854B     		ldr	r3, .L54+28
 574 0088 1D60     		str	r5, [r3]
 106:Core/Src/game.c ****     while(!gameOver){/* game loop */
 575              		.loc 1 106 5 is_stmt 1 view .LVU81
  87:Core/Src/game.c ****     
 576              		.loc 1 87 9 is_stmt 0 view .LVU82
 577 008a 2C46     		mov	r4, r5
  86:Core/Src/game.c ****     int speedUpCounter = 0;             // counting to know when reduce the rythm
 578              		.loc 1 86 9 view .LVU83
 579 008c 4FF09608 		mov	r8, #150
  83:Core/Src/game.c ****     int nbDeletedLines = 0;
 580              		.loc 1 83 9 view .LVU84
 581 0090 AA46     		mov	r10, r5
  81:Core/Src/game.c ****     /* for the game */
 582              		.loc 1 81 9 view .LVU85
 583 0092 A946     		mov	r9, r5
 584              		.loc 1 106 10 view .LVU86
 585 0094 8DE0     		b	.L41
 586              	.LVL38:
 587              	.L52:
 107:Core/Src/game.c ****         //remove
 108:Core/Src/game.c ****         LL_TIM_DisableCounter(TIM4);
 109:Core/Src/game.c ****         LL_TIM_SetCounter(TIM4,0);
 110:Core/Src/game.c ****         LL_TIM_EnableCounter(TIM4);
 111:Core/Src/game.c **** 
 112:Core/Src/game.c ****         print(&board);   
 113:Core/Src/game.c ****     
 114:Core/Src/game.c ****         if (movingTimer >= rythm){/* when the game is moving down the tetromino */
 115:Core/Src/game.c ****         movingTimer = 0;
 588              		.loc 1 115 9 is_stmt 1 view .LVU87
 589              		.loc 1 115 21 is_stmt 0 view .LVU88
 590 0096 824B     		ldr	r3, .L54+32
ARM GAS  C:\Users\paulp\AppData\Local\Temp\cc1vPtHZ.s 			page 38


 591 0098 0022     		movs	r2, #0
 592 009a 1A60     		str	r2, [r3]
 116:Core/Src/game.c ****         
 117:Core/Src/game.c ****             if(!moveCurrentPieceDownBot(&board)){/* if the tetromino is down down */
 593              		.loc 1 117 13 is_stmt 1 view .LVU89
 594              	.LBB13:
 595              		.loc 1 117 17 is_stmt 0 view .LVU90
 596 009c 7D48     		ldr	r0, .L54+20
 597 009e FFF7FEFF 		bl	moveCurrentPieceDownBot
 598              	.LVL39:
 599              		.loc 1 117 15 view .LVU91
 600 00a2 0028     		cmp	r0, #0
 601 00a4 40F09C80 		bne	.L42
 118:Core/Src/game.c ****                 gameOver = isGameOver(&board);
 602              		.loc 1 118 17 is_stmt 1 view .LVU92
 603              		.loc 1 118 28 is_stmt 0 view .LVU93
 604 00a8 DFF8E8B1 		ldr	fp, .L54+20
 605 00ac 5846     		mov	r0, fp
 606 00ae FFF7FEFF 		bl	isGameOver
 607              	.LVL40:
 608              		.loc 1 118 26 view .LVU94
 609 00b2 7A4B     		ldr	r3, .L54+28
 610 00b4 1860     		str	r0, [r3]
 119:Core/Src/game.c **** 
 120:Core/Src/game.c ****                 /* Creating a new tetromino */
 121:Core/Src/game.c ****                 initPiece(&piece, nextPiece, 0);
 611              		.loc 1 121 17 is_stmt 1 view .LVU95
 612 00b6 0022     		movs	r2, #0
 613 00b8 3946     		mov	r1, r7
 614 00ba 7748     		ldr	r0, .L54+24
 615 00bc FFF7FEFF 		bl	initPiece
 616              	.LVL41:
 122:Core/Src/game.c ****                 nextPiece = rand()%7;
 617              		.loc 1 122 17 view .LVU96
 618              		.loc 1 122 29 is_stmt 0 view .LVU97
 619 00c0 FFF7FEFF 		bl	rand
 620              	.LVL42:
 621              		.loc 1 122 27 view .LVU98
 622 00c4 714F     		ldr	r7, .L54+12
 623              	.LVL43:
 624              		.loc 1 122 27 view .LVU99
 625 00c6 87FB0037 		smull	r3, r7, r7, r0
 626 00ca 3B18     		adds	r3, r7, r0
 627 00cc C717     		asrs	r7, r0, #31
 628 00ce C7EBA307 		rsb	r7, r7, r3, asr #2
 629 00d2 C7EBC707 		rsb	r7, r7, r7, lsl #3
 630 00d6 C71B     		subs	r7, r0, r7
 631              	.LVL44:
 123:Core/Src/game.c ****                 newPiece(&board, &piece);
 632              		.loc 1 123 17 is_stmt 1 view .LVU100
 633 00d8 6F49     		ldr	r1, .L54+24
 634 00da 5846     		mov	r0, fp
 635 00dc FFF7FEFF 		bl	newPiece
 636              	.LVL45:
 124:Core/Src/game.c **** 
 125:Core/Src/game.c ****                 /* Deleting lines and displaying the move */
 126:Core/Src/game.c ****                 nbDeletedLines = deletePossibleLines(&board);
ARM GAS  C:\Users\paulp\AppData\Local\Temp\cc1vPtHZ.s 			page 39


 637              		.loc 1 126 17 view .LVU101
 638              		.loc 1 126 34 is_stmt 0 view .LVU102
 639 00e0 5846     		mov	r0, fp
 640 00e2 FFF7FEFF 		bl	deletePossibleLines
 641              	.LVL46:
 642 00e6 8346     		mov	fp, r0
 643              	.LVL47:
 127:Core/Src/game.c ****                 score += pow(nbDeletedLines, 2) * 100;
 644              		.loc 1 127 17 is_stmt 1 view .LVU103
 645              		.loc 1 127 26 is_stmt 0 view .LVU104
 646 00e8 FFF7FEFF 		bl	__aeabi_i2d
 647              	.LVL48:
 648              		.loc 1 127 26 view .LVU105
 649 00ec 9FED641B 		vldr.64	d1, .L54
 650 00f0 41EC100B 		vmov	d0, r0, r1
 651 00f4 FFF7FEFF 		bl	pow
 652              	.LVL49:
 653 00f8 51EC100B 		vmov	r0, r1, d0
 654              		.loc 1 127 49 view .LVU106
 655 00fc 0022     		movs	r2, #0
 656 00fe 694B     		ldr	r3, .L54+36
 657 0100 FFF7FEFF 		bl	__aeabi_dmul
 658              	.LVL50:
 659 0104 CDE90201 		strd	r0, [sp, #8]
 660              		.loc 1 127 23 view .LVU107
 661 0108 5046     		mov	r0, r10
 662 010a FFF7FEFF 		bl	__aeabi_i2d
 663              	.LVL51:
 664 010e DDE90223 		ldrd	r2, [sp, #8]
 665 0112 FFF7FEFF 		bl	__aeabi_dadd
 666              	.LVL52:
 667 0116 FFF7FEFF 		bl	__aeabi_d2iz
 668              	.LVL53:
 669 011a 8246     		mov	r10, r0
 670              	.LVL54:
 128:Core/Src/game.c ****                 if( nbDeletedLines > 0){
 671              		.loc 1 128 17 is_stmt 1 view .LVU108
 672              		.loc 1 128 19 is_stmt 0 view .LVU109
 673 011c BBF1000F 		cmp	fp, #0
 674 0120 23DD     		ble	.L43
 129:Core/Src/game.c ****                     startDisplay = 1;
 675              		.loc 1 129 21 is_stmt 1 view .LVU110
 676              	.LVL55:
 130:Core/Src/game.c ****                     if(nbDeletedLines == 4){
 677              		.loc 1 130 21 view .LVU111
 678              		.loc 1 130 23 is_stmt 0 view .LVU112
 679 0122 BBF1040F 		cmp	fp, #4
 680 0126 27D0     		beq	.L50
 131:Core/Src/game.c ****                         DrawText("TETRIS!", 80, 150, YELLOW, 2, BLACK);  
 132:Core/Src/game.c ****                     }
 133:Core/Src/game.c ****                     else{
 134:Core/Src/game.c ****                         sprintf(charNbDeletedLines, "%d", nbDeletedLines);
 681              		.loc 1 134 25 is_stmt 1 view .LVU113
 682 0128 5A46     		mov	r2, fp
 683 012a 5F49     		ldr	r1, .L54+40
 684 012c 05A8     		add	r0, sp, #20
 685              	.LVL56:
ARM GAS  C:\Users\paulp\AppData\Local\Temp\cc1vPtHZ.s 			page 40


 686              		.loc 1 134 25 is_stmt 0 view .LVU114
 687 012e FFF7FEFF 		bl	sprintf
 688              	.LVL57:
 135:Core/Src/game.c ****                         DrawText(charNbDeletedLines, 80, 140, WHITE, 2, BLACK);
 689              		.loc 1 135 25 is_stmt 1 view .LVU115
 690 0132 4FF0000B 		mov	fp, #0
 691              	.LVL58:
 692              		.loc 1 135 25 is_stmt 0 view .LVU116
 693 0136 CDF804B0 		str	fp, [sp, #4]
 694 013a 4FF00209 		mov	r9, #2
 695 013e CDF80090 		str	r9, [sp]
 696 0142 4FF6FF73 		movw	r3, #65535
 697 0146 8C22     		movs	r2, #140
 698 0148 5021     		movs	r1, #80
 699 014a 05A8     		add	r0, sp, #20
 700 014c FFF7FEFF 		bl	DrawText
 701              	.LVL59:
 136:Core/Src/game.c ****                         DrawText("LINE!", 80, 160, WHITE, 2, BLACK);
 702              		.loc 1 136 25 is_stmt 1 view .LVU117
 703 0150 CDF804B0 		str	fp, [sp, #4]
 704 0154 CDF80090 		str	r9, [sp]
 705 0158 4FF6FF73 		movw	r3, #65535
 706 015c A022     		movs	r2, #160
 707 015e 5021     		movs	r1, #80
 708 0160 5248     		ldr	r0, .L54+44
 709 0162 FFF7FEFF 		bl	DrawText
 710              	.LVL60:
 129:Core/Src/game.c ****                     if(nbDeletedLines == 4){
 711              		.loc 1 129 34 is_stmt 0 view .LVU118
 712 0166 4FF00109 		mov	r9, #1
 713              	.LVL61:
 714              	.L43:
 137:Core/Src/game.c ****                     }
 138:Core/Src/game.c ****                 }
 139:Core/Src/game.c ****                 
 140:Core/Src/game.c ****                 displayScore(score);
 715              		.loc 1 140 17 is_stmt 1 view .LVU119
 716 016a 5046     		mov	r0, r10
 717 016c FFF7FEFF 		bl	displayScore
 718              	.LVL62:
 141:Core/Src/game.c ****                 printNextPiece(nextPiece);
 719              		.loc 1 141 17 view .LVU120
 720 0170 3846     		mov	r0, r7
 721 0172 FFF7FEFF 		bl	printNextPiece
 722              	.LVL63:
 723 0176 33E0     		b	.L42
 724              	.LVL64:
 725              	.L50:
 131:Core/Src/game.c ****                     }
 726              		.loc 1 131 25 view .LVU121
 727 0178 0023     		movs	r3, #0
 728 017a 0193     		str	r3, [sp, #4]
 729 017c 0223     		movs	r3, #2
 730 017e 0093     		str	r3, [sp]
 731 0180 4FF6E073 		movw	r3, #65504
 732 0184 9622     		movs	r2, #150
 733 0186 5021     		movs	r1, #80
ARM GAS  C:\Users\paulp\AppData\Local\Temp\cc1vPtHZ.s 			page 41


 734 0188 4948     		ldr	r0, .L54+48
 735              	.LVL65:
 131:Core/Src/game.c ****                     }
 736              		.loc 1 131 25 is_stmt 0 view .LVU122
 737 018a FFF7FEFF 		bl	DrawText
 738              	.LVL66:
 129:Core/Src/game.c ****                     if(nbDeletedLines == 4){
 739              		.loc 1 129 34 view .LVU123
 740 018e 4FF00109 		mov	r9, #1
 741 0192 EAE7     		b	.L43
 742              	.LVL67:
 743              	.L53:
 129:Core/Src/game.c ****                     if(nbDeletedLines == 4){
 744              		.loc 1 129 34 view .LVU124
 745              	.LBE13:
 142:Core/Src/game.c ****             }
 143:Core/Src/game.c ****         }
 144:Core/Src/game.c **** 
 145:Core/Src/game.c ****         
 146:Core/Src/game.c **** 
 147:Core/Src/game.c ****         movingTimer++;
 148:Core/Src/game.c ****         speedUpCounter++;
 149:Core/Src/game.c **** 
 150:Core/Src/game.c ****         /* Displaying the move (when the player deleted a line) */
 151:Core/Src/game.c ****         if( startDisplay ){
 152:Core/Src/game.c ****             timeDisplay++;
 153:Core/Src/game.c ****         }
 154:Core/Src/game.c ****         if( timeDisplay >= 300 ){
 155:Core/Src/game.c ****             fillRect(70, 140, 20, 90, BLACK);
 746              		.loc 1 155 13 is_stmt 1 view .LVU125
 747 0194 0023     		movs	r3, #0
 748 0196 0093     		str	r3, [sp]
 749 0198 5A23     		movs	r3, #90
 750 019a 1422     		movs	r2, #20
 751 019c 8C21     		movs	r1, #140
 752 019e 4620     		movs	r0, #70
 753 01a0 FFF7FEFF 		bl	fillRect
 754              	.LVL68:
 156:Core/Src/game.c ****             timeDisplay = 0;
 755              		.loc 1 156 13 view .LVU126
 157:Core/Src/game.c ****             startDisplay = 0;
 756              		.loc 1 157 13 view .LVU127
 757              		.loc 1 157 26 is_stmt 0 view .LVU128
 758 01a4 B146     		mov	r9, r6
 156:Core/Src/game.c ****             timeDisplay = 0;
 759              		.loc 1 156 25 view .LVU129
 760 01a6 3546     		mov	r5, r6
 761 01a8 26E0     		b	.L46
 762              	.LVL69:
 763              	.L47:
 158:Core/Src/game.c ****         }
 159:Core/Src/game.c **** 
 160:Core/Src/game.c ****         /* Speeding up if it's time to */
 161:Core/Src/game.c ****         if(speedUpCounter % SPEEDUP_RYTHM == 0 ){
 162:Core/Src/game.c ****             if(rythm > 50){
 163:Core/Src/game.c ****                 rythm -= 20;
 164:Core/Src/game.c ****             }
ARM GAS  C:\Users\paulp\AppData\Local\Temp\cc1vPtHZ.s 			page 42


 165:Core/Src/game.c ****         }
 166:Core/Src/game.c **** 
 167:Core/Src/game.c ****         SystemCheckUp();  
 764              		.loc 1 167 9 is_stmt 1 view .LVU130
 765 01aa FFF7FEFF 		bl	SystemCheckUp
 766              	.LVL70:
 168:Core/Src/game.c ****         sync();
 767              		.loc 1 168 9 view .LVU131
 768 01ae FFF7FEFF 		bl	sync
 769              	.LVL71:
 770              	.L41:
 106:Core/Src/game.c ****         //remove
 771              		.loc 1 106 10 view .LVU132
 106:Core/Src/game.c ****         //remove
 772              		.loc 1 106 11 is_stmt 0 view .LVU133
 773 01b2 3A4B     		ldr	r3, .L54+28
 774 01b4 1E68     		ldr	r6, [r3]
 106:Core/Src/game.c ****         //remove
 775              		.loc 1 106 10 view .LVU134
 776 01b6 002E     		cmp	r6, #0
 777 01b8 30D1     		bne	.L51
 108:Core/Src/game.c ****         LL_TIM_SetCounter(TIM4,0);
 778              		.loc 1 108 9 is_stmt 1 view .LVU135
 779              	.LVL72:
 780              	.LBB14:
 781              	.LBI14:
1136:Drivers/STM32F4xx_HAL_Driver/Inc/stm32f4xx_ll_tim.h **** {
 782              		.loc 2 1136 22 view .LVU136
 783              	.LBB15:
1138:Drivers/STM32F4xx_HAL_Driver/Inc/stm32f4xx_ll_tim.h **** }
 784              		.loc 2 1138 3 view .LVU137
 785 01ba 334B     		ldr	r3, .L54+8
 786 01bc 1A68     		ldr	r2, [r3]
 787 01be 22F00102 		bic	r2, r2, #1
 788 01c2 1A60     		str	r2, [r3]
 789              	.LVL73:
1138:Drivers/STM32F4xx_HAL_Driver/Inc/stm32f4xx_ll_tim.h **** }
 790              		.loc 2 1138 3 is_stmt 0 view .LVU138
 791              	.LBE15:
 792              	.LBE14:
 109:Core/Src/game.c ****         LL_TIM_EnableCounter(TIM4);
 793              		.loc 1 109 9 is_stmt 1 view .LVU139
 794              	.LBB16:
 795              	.LBI16:
1378:Drivers/STM32F4xx_HAL_Driver/Inc/stm32f4xx_ll_tim.h **** {
 796              		.loc 2 1378 22 view .LVU140
 797              	.LBB17:
1380:Drivers/STM32F4xx_HAL_Driver/Inc/stm32f4xx_ll_tim.h **** }
 798              		.loc 2 1380 3 view .LVU141
 799 01c4 0022     		movs	r2, #0
 800 01c6 5A62     		str	r2, [r3, #36]
 801              	.LVL74:
1380:Drivers/STM32F4xx_HAL_Driver/Inc/stm32f4xx_ll_tim.h **** }
 802              		.loc 2 1380 3 is_stmt 0 view .LVU142
 803              	.LBE17:
 804              	.LBE16:
 110:Core/Src/game.c **** 
ARM GAS  C:\Users\paulp\AppData\Local\Temp\cc1vPtHZ.s 			page 43


 805              		.loc 1 110 9 is_stmt 1 view .LVU143
 806              	.LBB18:
 807              	.LBI18:
1125:Drivers/STM32F4xx_HAL_Driver/Inc/stm32f4xx_ll_tim.h **** {
 808              		.loc 2 1125 22 view .LVU144
 809              	.LBB19:
1127:Drivers/STM32F4xx_HAL_Driver/Inc/stm32f4xx_ll_tim.h **** }
 810              		.loc 2 1127 3 view .LVU145
 811 01c8 1A68     		ldr	r2, [r3]
 812 01ca 42F00102 		orr	r2, r2, #1
 813 01ce 1A60     		str	r2, [r3]
 814              	.LVL75:
1127:Drivers/STM32F4xx_HAL_Driver/Inc/stm32f4xx_ll_tim.h **** }
 815              		.loc 2 1127 3 is_stmt 0 view .LVU146
 816              	.LBE19:
 817              	.LBE18:
 112:Core/Src/game.c ****     
 818              		.loc 1 112 9 is_stmt 1 view .LVU147
 819 01d0 3048     		ldr	r0, .L54+20
 820 01d2 FFF7FEFF 		bl	print
 821              	.LVL76:
 114:Core/Src/game.c ****         movingTimer = 0;
 822              		.loc 1 114 9 view .LVU148
 114:Core/Src/game.c ****         movingTimer = 0;
 823              		.loc 1 114 25 is_stmt 0 view .LVU149
 824 01d6 324B     		ldr	r3, .L54+32
 825 01d8 1B68     		ldr	r3, [r3]
 114:Core/Src/game.c ****         movingTimer = 0;
 826              		.loc 1 114 12 view .LVU150
 827 01da 4345     		cmp	r3, r8
 828 01dc BFF65BAF 		bge	.L52
 829              	.L42:
 147:Core/Src/game.c ****         speedUpCounter++;
 830              		.loc 1 147 9 is_stmt 1 view .LVU151
 147:Core/Src/game.c ****         speedUpCounter++;
 831              		.loc 1 147 20 is_stmt 0 view .LVU152
 832 01e0 2F4A     		ldr	r2, .L54+32
 833 01e2 1368     		ldr	r3, [r2]
 834 01e4 0133     		adds	r3, r3, #1
 835 01e6 1360     		str	r3, [r2]
 148:Core/Src/game.c **** 
 836              		.loc 1 148 9 is_stmt 1 view .LVU153
 148:Core/Src/game.c **** 
 837              		.loc 1 148 23 is_stmt 0 view .LVU154
 838 01e8 0134     		adds	r4, r4, #1
 839              	.LVL77:
 151:Core/Src/game.c ****             timeDisplay++;
 840              		.loc 1 151 9 is_stmt 1 view .LVU155
 151:Core/Src/game.c ****             timeDisplay++;
 841              		.loc 1 151 11 is_stmt 0 view .LVU156
 842 01ea B9F1000F 		cmp	r9, #0
 843 01ee 00D0     		beq	.L45
 152:Core/Src/game.c ****         }
 844              		.loc 1 152 13 is_stmt 1 view .LVU157
 152:Core/Src/game.c ****         }
 845              		.loc 1 152 24 is_stmt 0 view .LVU158
 846 01f0 0135     		adds	r5, r5, #1
ARM GAS  C:\Users\paulp\AppData\Local\Temp\cc1vPtHZ.s 			page 44


 847              	.LVL78:
 848              	.L45:
 154:Core/Src/game.c ****             fillRect(70, 140, 20, 90, BLACK);
 849              		.loc 1 154 9 is_stmt 1 view .LVU159
 154:Core/Src/game.c ****             fillRect(70, 140, 20, 90, BLACK);
 850              		.loc 1 154 11 is_stmt 0 view .LVU160
 851 01f2 B5F5967F 		cmp	r5, #300
 852 01f6 CDDA     		bge	.L53
 853              	.LVL79:
 854              	.L46:
 161:Core/Src/game.c ****             if(rythm > 50){
 855              		.loc 1 161 9 is_stmt 1 view .LVU161
 161:Core/Src/game.c ****             if(rythm > 50){
 856              		.loc 1 161 27 is_stmt 0 view .LVU162
 857 01f8 2E4A     		ldr	r2, .L54+52
 858 01fa 82FB0432 		smull	r3, r2, r2, r4
 859 01fe E317     		asrs	r3, r4, #31
 860 0200 C3EB6233 		rsb	r3, r3, r2, asr #13
 861 0204 47F23052 		movw	r2, #30000
 862 0208 02FB1343 		mls	r3, r2, r3, r4
 161:Core/Src/game.c ****             if(rythm > 50){
 863              		.loc 1 161 11 view .LVU163
 864 020c 002B     		cmp	r3, #0
 865 020e CCD1     		bne	.L47
 162:Core/Src/game.c ****                 rythm -= 20;
 866              		.loc 1 162 13 is_stmt 1 view .LVU164
 162:Core/Src/game.c ****                 rythm -= 20;
 867              		.loc 1 162 15 is_stmt 0 view .LVU165
 868 0210 B8F1320F 		cmp	r8, #50
 869 0214 C9DD     		ble	.L47
 163:Core/Src/game.c ****             }
 870              		.loc 1 163 17 is_stmt 1 view .LVU166
 163:Core/Src/game.c ****             }
 871              		.loc 1 163 23 is_stmt 0 view .LVU167
 872 0216 A8F11408 		sub	r8, r8, #20
 873              	.LVL80:
 163:Core/Src/game.c ****             }
 874              		.loc 1 163 23 view .LVU168
 875 021a C6E7     		b	.L47
 876              	.L51:
 169:Core/Src/game.c ****     }
 170:Core/Src/game.c **** 
 171:Core/Src/game.c ****     /* Displaying game over */
 172:Core/Src/game.c ****     fillScreen(BLACK);
 877              		.loc 1 172 5 is_stmt 1 view .LVU169
 878 021c 0020     		movs	r0, #0
 879 021e FFF7FEFF 		bl	fillScreen
 880              	.LVL81:
 173:Core/Src/game.c ****     DrawText("GAME OVER",170,50,RED,4,BLACK);
 881              		.loc 1 173 5 view .LVU170
 882 0222 0024     		movs	r4, #0
 883              	.LVL82:
 884              		.loc 1 173 5 is_stmt 0 view .LVU171
 885 0224 0194     		str	r4, [sp, #4]
 886 0226 0423     		movs	r3, #4
 887 0228 0093     		str	r3, [sp]
 888 022a 4FF47843 		mov	r3, #63488
ARM GAS  C:\Users\paulp\AppData\Local\Temp\cc1vPtHZ.s 			page 45


 889 022e 3222     		movs	r2, #50
 890 0230 AA21     		movs	r1, #170
 891 0232 2148     		ldr	r0, .L54+56
 892 0234 FFF7FEFF 		bl	DrawText
 893              	.LVL83:
 174:Core/Src/game.c ****     DrawText("YOUR SCORE : ",70,50,WHITE,2,BLACK);
 894              		.loc 1 174 5 is_stmt 1 view .LVU172
 895 0238 0194     		str	r4, [sp, #4]
 896 023a 0225     		movs	r5, #2
 897              	.LVL84:
 898              		.loc 1 174 5 is_stmt 0 view .LVU173
 899 023c 0095     		str	r5, [sp]
 900 023e 4FF6FF73 		movw	r3, #65535
 901 0242 3222     		movs	r2, #50
 902 0244 4621     		movs	r1, #70
 903 0246 1D48     		ldr	r0, .L54+60
 904 0248 FFF7FEFF 		bl	DrawText
 905              	.LVL85:
 175:Core/Src/game.c ****     sprintf(charScore,"%d",score);
 906              		.loc 1 175 5 is_stmt 1 view .LVU174
 907 024c 5246     		mov	r2, r10
 908 024e 1649     		ldr	r1, .L54+40
 909 0250 06A8     		add	r0, sp, #24
 910 0252 FFF7FEFF 		bl	sprintf
 911              	.LVL86:
 176:Core/Src/game.c ****     DrawText(charScore,50,50,WHITE,2,BLACK);
 912              		.loc 1 176 5 view .LVU175
 913 0256 0194     		str	r4, [sp, #4]
 914 0258 0095     		str	r5, [sp]
 915 025a 4FF6FF73 		movw	r3, #65535
 916 025e 3222     		movs	r2, #50
 917 0260 1146     		mov	r1, r2
 918 0262 06A8     		add	r0, sp, #24
 919 0264 FFF7FEFF 		bl	DrawText
 920              	.LVL87:
 177:Core/Src/game.c **** 
 178:Core/Src/game.c ****     start = 0;
 921              		.loc 1 178 5 view .LVU176
 922              		.loc 1 178 11 is_stmt 0 view .LVU177
 923 0268 154B     		ldr	r3, .L54+64
 924 026a 1C60     		str	r4, [r3]
 179:Core/Src/game.c ****     gameOver = 1;
 925              		.loc 1 179 5 is_stmt 1 view .LVU178
 926              		.loc 1 179 14 is_stmt 0 view .LVU179
 927 026c 0B4B     		ldr	r3, .L54+28
 928 026e 0122     		movs	r2, #1
 929 0270 1A60     		str	r2, [r3]
 180:Core/Src/game.c **** 
 181:Core/Src/game.c ****     setButtonsOutGame();   
 930              		.loc 1 181 5 is_stmt 1 view .LVU180
 931 0272 FFF7FEFF 		bl	setButtonsOutGame
 932              	.LVL88:
 182:Core/Src/game.c **** 
 183:Core/Src/game.c ****     return score;
 933              		.loc 1 183 5 view .LVU181
 184:Core/Src/game.c **** }
 934              		.loc 1 184 1 is_stmt 0 view .LVU182
ARM GAS  C:\Users\paulp\AppData\Local\Temp\cc1vPtHZ.s 			page 46


 935 0276 5046     		mov	r0, r10
 936 0278 09B0     		add	sp, sp, #36
 937              	.LCFI13:
 938              		.cfi_def_cfa_offset 36
 939              		@ sp needed
 940 027a BDE8F08F 		pop	{r4, r5, r6, r7, r8, r9, r10, fp, pc}
 941              	.LVL89:
 942              	.L55:
 943              		.loc 1 184 1 view .LVU183
 944 027e 00BF     		.align	3
 945              	.L54:
 946 0280 00000000 		.word	0
 947 0284 00000040 		.word	1073741824
 948 0288 00080040 		.word	1073743872
 949 028c 93244992 		.word	-1840700269
 950 0290 00000000 		.word	.LC1
 951 0294 00000000 		.word	.LANCHOR1
 952 0298 00000000 		.word	.LANCHOR3
 953 029c 00000000 		.word	.LANCHOR4
 954 02a0 00000000 		.word	.LANCHOR2
 955 02a4 00005940 		.word	1079574528
 956 02a8 00000000 		.word	.LC0
 957 02ac 10000000 		.word	.LC3
 958 02b0 08000000 		.word	.LC2
 959 02b4 73B2E745 		.word	1172812403
 960 02b8 18000000 		.word	.LC4
 961 02bc 24000000 		.word	.LC5
 962 02c0 00000000 		.word	.LANCHOR0
 963              		.cfi_endproc
 964              	.LFE747:
 966              		.section	.rodata.main.str1.4,"aMS",%progbits,1
 967              		.align	2
 968              	.LC6:
 969 0000 50726573 		.ascii	"Press start to play!\000"
 969      73207374 
 969      61727420 
 969      746F2070 
 969      6C617921 
 970 0015 000000   		.align	2
 971              	.LC7:
 972 0018 50726573 		.ascii	"Press start to replay\000"
 972      73207374 
 972      61727420 
 972      746F2072 
 972      65706C61 
 973 002e 0000     		.align	2
 974              	.LC8:
 975 0030 42455354 		.ascii	"BEST SCORE : \000"
 975      2053434F 
 975      5245203A 
 975      2000
 976              		.section	.text.main,"ax",%progbits
 977              		.align	1
 978              		.global	main
 979              		.syntax unified
 980              		.thumb
 981              		.thumb_func
ARM GAS  C:\Users\paulp\AppData\Local\Temp\cc1vPtHZ.s 			page 47


 982              		.fpu fpv4-sp-d16
 984              	main:
 985              	.LFB748:
 185:Core/Src/game.c **** 
 186:Core/Src/game.c **** 
 187:Core/Src/game.c **** int main(void){
 986              		.loc 1 187 15 is_stmt 1 view -0
 987              		.cfi_startproc
 988              		@ args = 0, pretend = 0, frame = 8
 989              		@ frame_needed = 0, uses_anonymous_args = 0
 990 0000 30B5     		push	{r4, r5, lr}
 991              	.LCFI14:
 992              		.cfi_def_cfa_offset 12
 993              		.cfi_offset 4, -12
 994              		.cfi_offset 5, -8
 995              		.cfi_offset 14, -4
 996 0002 85B0     		sub	sp, sp, #20
 997              	.LCFI15:
 998              		.cfi_def_cfa_offset 32
 188:Core/Src/game.c ****     
 189:Core/Src/game.c ****     /* Set up */
 190:Core/Src/game.c ****     initSystem();
 999              		.loc 1 190 5 view .LVU185
 1000 0004 FFF7FEFF 		bl	initSystem
 1001              	.LVL90:
 191:Core/Src/game.c ****     setSync(SYNC_TIME);
 1002              		.loc 1 191 5 view .LVU186
 1003 0008 4CF25030 		movw	r0, #50000
 1004 000c FFF7FEFF 		bl	setSync
 1005              	.LVL91:
 192:Core/Src/game.c ****     setButtonsOutGame();   
 1006              		.loc 1 192 5 view .LVU187
 1007 0010 FFF7FEFF 		bl	setButtonsOutGame
 1008              	.LVL92:
 193:Core/Src/game.c ****     
 194:Core/Src/game.c ****     /* VARIABLES */
 195:Core/Src/game.c ****     int score = 0;
 1009              		.loc 1 195 5 view .LVU188
 196:Core/Src/game.c ****     char charScore[6];
 1010              		.loc 1 196 5 view .LVU189
 197:Core/Src/game.c **** 
 198:Core/Src/game.c ****     fillScreen(BLACK);
 1011              		.loc 1 198 5 view .LVU190
 1012 0014 0020     		movs	r0, #0
 1013 0016 FFF7FEFF 		bl	fillScreen
 1014              	.LVL93:
 1015 001a 30E0     		b	.L61
 1016              	.LVL94:
 1017              	.L57:
 199:Core/Src/game.c **** 
 200:Core/Src/game.c ****     while(1){/* main loop */
 201:Core/Src/game.c ****         if(gameOver == 0){/* if it's the first game */
 202:Core/Src/game.c ****             DrawText("Press start to play!",140,20,WHITE,2,BLACK);
 203:Core/Src/game.c ****         }
 204:Core/Src/game.c ****         else{/* if it's a replay */
 205:Core/Src/game.c ****             DrawText("Press start to replay",120,10,WHITE,2,BLACK);
 1018              		.loc 1 205 13 view .LVU191
ARM GAS  C:\Users\paulp\AppData\Local\Temp\cc1vPtHZ.s 			page 48


 1019 001c 0023     		movs	r3, #0
 1020 001e 0193     		str	r3, [sp, #4]
 1021 0020 0223     		movs	r3, #2
 1022 0022 0093     		str	r3, [sp]
 1023 0024 4FF6FF73 		movw	r3, #65535
 1024 0028 0A22     		movs	r2, #10
 1025 002a 7821     		movs	r1, #120
 1026 002c 1B48     		ldr	r0, .L63
 1027 002e FFF7FEFF 		bl	DrawText
 1028              	.LVL95:
 1029 0032 01E0     		b	.L59
 1030              	.L60:
 206:Core/Src/game.c ****         }
 207:Core/Src/game.c **** 
 208:Core/Src/game.c ****         /* Waiting for the player to press START */
 209:Core/Src/game.c ****         while(!start){
 210:Core/Src/game.c ****             SystemCheckUp();
 1031              		.loc 1 210 13 view .LVU192
 1032 0034 FFF7FEFF 		bl	SystemCheckUp
 1033              	.LVL96:
 1034              	.L59:
 209:Core/Src/game.c ****             SystemCheckUp();
 1035              		.loc 1 209 14 view .LVU193
 209:Core/Src/game.c ****             SystemCheckUp();
 1036              		.loc 1 209 15 is_stmt 0 view .LVU194
 1037 0038 194B     		ldr	r3, .L63+4
 1038 003a 1B68     		ldr	r3, [r3]
 209:Core/Src/game.c ****             SystemCheckUp();
 1039              		.loc 1 209 14 view .LVU195
 1040 003c 002B     		cmp	r3, #0
 1041 003e F9D0     		beq	.L60
 211:Core/Src/game.c ****         }
 212:Core/Src/game.c **** 
 213:Core/Src/game.c ****         /* Running 1 game */
 214:Core/Src/game.c ****         score = game();
 1042              		.loc 1 214 9 is_stmt 1 view .LVU196
 1043              		.loc 1 214 17 is_stmt 0 view .LVU197
 1044 0040 FFF7FEFF 		bl	game
 1045              	.LVL97:
 215:Core/Src/game.c **** 
 216:Core/Src/game.c ****         /* Saving and displaying the best score */
 217:Core/Src/game.c ****         updateHighScore(score);
 1046              		.loc 1 217 9 is_stmt 1 view .LVU198
 1047 0044 FFF7FEFF 		bl	updateHighScore
 1048              	.LVL98:
 218:Core/Src/game.c ****         sprintf(charScore, "%d", getHighScore());
 1049              		.loc 1 218 9 view .LVU199
 1050 0048 FFF7FEFF 		bl	getHighScore
 1051              	.LVL99:
 1052 004c 0246     		mov	r2, r0
 1053 004e 1549     		ldr	r1, .L63+8
 1054 0050 02A8     		add	r0, sp, #8
 1055 0052 FFF7FEFF 		bl	sprintf
 1056              	.LVL100:
 219:Core/Src/game.c ****         DrawText("BEST SCORE : ", 30, 50, WHITE, 2, BLACK);
 1057              		.loc 1 219 9 view .LVU200
 1058 0056 0025     		movs	r5, #0
ARM GAS  C:\Users\paulp\AppData\Local\Temp\cc1vPtHZ.s 			page 49


 1059 0058 0195     		str	r5, [sp, #4]
 1060 005a 0224     		movs	r4, #2
 1061 005c 0094     		str	r4, [sp]
 1062 005e 4FF6FF73 		movw	r3, #65535
 1063 0062 3222     		movs	r2, #50
 1064 0064 1E21     		movs	r1, #30
 1065 0066 1048     		ldr	r0, .L63+12
 1066 0068 FFF7FEFF 		bl	DrawText
 1067              	.LVL101:
 220:Core/Src/game.c ****         DrawText(charScore, 10, 50, WHITE, 2, BLACK);   
 1068              		.loc 1 220 9 view .LVU201
 1069 006c 0195     		str	r5, [sp, #4]
 1070 006e 0094     		str	r4, [sp]
 1071 0070 4FF6FF73 		movw	r3, #65535
 1072 0074 3222     		movs	r2, #50
 1073 0076 0A21     		movs	r1, #10
 1074 0078 02A8     		add	r0, sp, #8
 1075 007a FFF7FEFF 		bl	DrawText
 1076              	.LVL102:
 200:Core/Src/game.c ****         if(gameOver == 0){/* if it's the first game */
 1077              		.loc 1 200 10 view .LVU202
 1078              	.L61:
 200:Core/Src/game.c ****         if(gameOver == 0){/* if it's the first game */
 1079              		.loc 1 200 5 view .LVU203
 201:Core/Src/game.c ****             DrawText("Press start to play!",140,20,WHITE,2,BLACK);
 1080              		.loc 1 201 9 view .LVU204
 201:Core/Src/game.c ****             DrawText("Press start to play!",140,20,WHITE,2,BLACK);
 1081              		.loc 1 201 21 is_stmt 0 view .LVU205
 1082 007e 0B4B     		ldr	r3, .L63+16
 1083 0080 1B68     		ldr	r3, [r3]
 201:Core/Src/game.c ****             DrawText("Press start to play!",140,20,WHITE,2,BLACK);
 1084              		.loc 1 201 11 view .LVU206
 1085 0082 002B     		cmp	r3, #0
 1086 0084 CAD1     		bne	.L57
 202:Core/Src/game.c ****         }
 1087              		.loc 1 202 13 is_stmt 1 view .LVU207
 1088 0086 0193     		str	r3, [sp, #4]
 1089 0088 0223     		movs	r3, #2
 1090 008a 0093     		str	r3, [sp]
 1091 008c 4FF6FF73 		movw	r3, #65535
 1092 0090 1422     		movs	r2, #20
 1093 0092 8C21     		movs	r1, #140
 1094 0094 0648     		ldr	r0, .L63+20
 1095 0096 FFF7FEFF 		bl	DrawText
 1096              	.LVL103:
 1097 009a CDE7     		b	.L59
 1098              	.L64:
 1099              		.align	2
 1100              	.L63:
 1101 009c 18000000 		.word	.LC7
 1102 00a0 00000000 		.word	.LANCHOR0
 1103 00a4 00000000 		.word	.LC0
 1104 00a8 30000000 		.word	.LC8
 1105 00ac 00000000 		.word	.LANCHOR4
 1106 00b0 00000000 		.word	.LC6
 1107              		.cfi_endproc
 1108              	.LFE748:
ARM GAS  C:\Users\paulp\AppData\Local\Temp\cc1vPtHZ.s 			page 50


 1110              		.global	gameOver
 1111              		.global	start
 1112              		.global	movingTimer
 1113              		.global	piece
 1114              		.global	board
 1115              		.section	.bss.board,"aw",%nobits
 1116              		.align	2
 1117              		.set	.LANCHOR1,. + 0
 1120              	board:
 1121 0000 00000000 		.space	804
 1121      00000000 
 1121      00000000 
 1121      00000000 
 1121      00000000 
 1122              		.section	.bss.gameOver,"aw",%nobits
 1123              		.align	2
 1124              		.set	.LANCHOR4,. + 0
 1127              	gameOver:
 1128 0000 00000000 		.space	4
 1129              		.section	.bss.movingTimer,"aw",%nobits
 1130              		.align	2
 1131              		.set	.LANCHOR2,. + 0
 1134              	movingTimer:
 1135 0000 00000000 		.space	4
 1136              		.section	.bss.piece,"aw",%nobits
 1137              		.align	2
 1138              		.set	.LANCHOR3,. + 0
 1141              	piece:
 1142 0000 00000000 		.space	20
 1142      00000000 
 1142      00000000 
 1142      00000000 
 1142      00000000 
 1143              		.section	.bss.start,"aw",%nobits
 1144              		.align	2
 1145              		.set	.LANCHOR0,. + 0
 1148              	start:
 1149 0000 00000000 		.space	4
 1150              		.text
 1151              	.Letext0:
 1152              		.file 3 "c:\\programdata\\chocolatey\\lib\\gcc-arm-embedded\\tools\\gcc-arm-none-eabi-10-2020-q4-m
 1153              		.file 4 "c:\\programdata\\chocolatey\\lib\\gcc-arm-embedded\\tools\\gcc-arm-none-eabi-10-2020-q4-m
 1154              		.file 5 "Drivers/CMSIS/Device/ST/STM32F4xx/Include/stm32f411xe.h"
 1155              		.file 6 "Drivers/STM32F4xx_HAL_Driver/Inc/stm32f4xx_ll_dma.h"
 1156              		.file 7 "Core/Inc/../Inc/../Inc/5x5_font.h"
 1157              		.file 8 "Core/Inc/../Inc/shapes.h"
 1158              		.file 9 "Core/Inc/../Inc/piece.h"
 1159              		.file 10 "Core/Inc/../Inc/board.h"
 1160              		.file 11 "Core/Inc/os.h"
 1161              		.file 12 "Core/Inc/../Inc/ILI9341_Driver.h"
 1162              		.file 13 "c:\\programdata\\chocolatey\\lib\\gcc-arm-embedded\\tools\\gcc-arm-none-eabi-10-2020-q4-
 1163              		.file 14 "c:\\programdata\\chocolatey\\lib\\gcc-arm-embedded\\tools\\gcc-arm-none-eabi-10-2020-q4-
 1164              		.file 15 "c:\\programdata\\chocolatey\\lib\\gcc-arm-embedded\\tools\\gcc-arm-none-eabi-10-2020-q4-
ARM GAS  C:\Users\paulp\AppData\Local\Temp\cc1vPtHZ.s 			page 51

