ARM GAS  /tmp/ccdh1ORM.s 			page 1


   1              		.cpu cortex-m4
   2              		.eabi_attribute 27, 1
   3              		.eabi_attribute 28, 1
   4              		.eabi_attribute 20, 1
   5              		.eabi_attribute 21, 1
   6              		.eabi_attribute 23, 3
   7              		.eabi_attribute 24, 1
   8              		.eabi_attribute 25, 1
   9              		.eabi_attribute 26, 1
  10              		.eabi_attribute 30, 1
  11              		.eabi_attribute 34, 1
  12              		.eabi_attribute 18, 4
  13              		.file	"game.c"
  14              		.text
  15              	.Ltext0:
  16              		.cfi_sections	.debug_frame
  17              		.section	.text.START,"ax",%progbits
  18              		.align	1
  19              		.global	START
  20              		.syntax unified
  21              		.thumb
  22              		.thumb_func
  23              		.fpu fpv4-sp-d16
  25              	START:
  26              	.LFB741:
  27              		.file 1 "Core/Src/game.c"
   1:Core/Src/game.c **** #include "game.h"
   2:Core/Src/game.c **** 
   3:Core/Src/game.c **** #define SYNC_TIME     5000
   4:Core/Src/game.c **** #define INITIAL_RYTHM 200
   5:Core/Src/game.c **** #define SPEEDUP_RYTHM 3000
   6:Core/Src/game.c **** 
   7:Core/Src/game.c **** Board board;
   8:Core/Src/game.c **** Piece piece;
   9:Core/Src/game.c **** 
  10:Core/Src/game.c **** int movingTimer = 0;
  11:Core/Src/game.c **** int start       = 0;
  12:Core/Src/game.c **** int gameOver  = 0;
  13:Core/Src/game.c **** 
  14:Core/Src/game.c **** /* Buttons functions */
  15:Core/Src/game.c **** void UP(void){
  16:Core/Src/game.c ****     dropCurrentPiece(&board);
  17:Core/Src/game.c **** }
  18:Core/Src/game.c **** 
  19:Core/Src/game.c **** void DOWN(void){  
  20:Core/Src/game.c ****     moveCurrentPieceDown(&board);
  21:Core/Src/game.c ****     movingTimer = 0;
  22:Core/Src/game.c **** }
  23:Core/Src/game.c **** 
  24:Core/Src/game.c **** void RIGHT(void){
  25:Core/Src/game.c ****     moveCurrentPieceRight(&board);
  26:Core/Src/game.c **** }
  27:Core/Src/game.c **** 
  28:Core/Src/game.c **** void LEFT(void){
  29:Core/Src/game.c ****     moveCurrentPieceLeft(&board);
  30:Core/Src/game.c **** }
  31:Core/Src/game.c **** 
ARM GAS  /tmp/ccdh1ORM.s 			page 2


  32:Core/Src/game.c **** void A(void){    
  33:Core/Src/game.c ****     rotateCurrentPieceRight(&board);
  34:Core/Src/game.c **** }
  35:Core/Src/game.c **** 
  36:Core/Src/game.c **** void B(void){
  37:Core/Src/game.c ****     rotateCurrentPieceLeft(&board);
  38:Core/Src/game.c **** }
  39:Core/Src/game.c **** 
  40:Core/Src/game.c **** void START(void){
  28              		.loc 1 40 0
  29              		.cfi_startproc
  30              		@ args = 0, pretend = 0, frame = 0
  31              		@ frame_needed = 0, uses_anonymous_args = 0
  32              		@ link register save eliminated.
  41:Core/Src/game.c ****     start = !start;
  33              		.loc 1 41 0
  34 0000 034A     		ldr	r2, .L2
  35 0002 1368     		ldr	r3, [r2]
  36 0004 B3FA83F3 		clz	r3, r3
  37 0008 5B09     		lsrs	r3, r3, #5
  38 000a 1360     		str	r3, [r2]
  39 000c 7047     		bx	lr
  40              	.L3:
  41 000e 00BF     		.align	2
  42              	.L2:
  43 0010 00000000 		.word	.LANCHOR0
  44              		.cfi_endproc
  45              	.LFE741:
  47              		.section	.text.UP,"ax",%progbits
  48              		.align	1
  49              		.global	UP
  50              		.syntax unified
  51              		.thumb
  52              		.thumb_func
  53              		.fpu fpv4-sp-d16
  55              	UP:
  56              	.LFB735:
  15:Core/Src/game.c ****     dropCurrentPiece(&board);
  57              		.loc 1 15 0
  58              		.cfi_startproc
  59              		@ args = 0, pretend = 0, frame = 0
  60              		@ frame_needed = 0, uses_anonymous_args = 0
  61 0000 08B5     		push	{r3, lr}
  62              	.LCFI0:
  63              		.cfi_def_cfa_offset 8
  64              		.cfi_offset 3, -8
  65              		.cfi_offset 14, -4
  16:Core/Src/game.c **** }
  66              		.loc 1 16 0
  67 0002 0248     		ldr	r0, .L6
  68 0004 FFF7FEFF 		bl	dropCurrentPiece
  69              	.LVL0:
  70 0008 08BD     		pop	{r3, pc}
  71              	.L7:
  72 000a 00BF     		.align	2
  73              	.L6:
  74 000c 00000000 		.word	board
ARM GAS  /tmp/ccdh1ORM.s 			page 3


  75              		.cfi_endproc
  76              	.LFE735:
  78              		.section	.text.DOWN,"ax",%progbits
  79              		.align	1
  80              		.global	DOWN
  81              		.syntax unified
  82              		.thumb
  83              		.thumb_func
  84              		.fpu fpv4-sp-d16
  86              	DOWN:
  87              	.LFB736:
  19:Core/Src/game.c ****     moveCurrentPieceDown(&board);
  88              		.loc 1 19 0
  89              		.cfi_startproc
  90              		@ args = 0, pretend = 0, frame = 0
  91              		@ frame_needed = 0, uses_anonymous_args = 0
  92 0000 08B5     		push	{r3, lr}
  93              	.LCFI1:
  94              		.cfi_def_cfa_offset 8
  95              		.cfi_offset 3, -8
  96              		.cfi_offset 14, -4
  20:Core/Src/game.c ****     movingTimer = 0;
  97              		.loc 1 20 0
  98 0002 0348     		ldr	r0, .L10
  99 0004 FFF7FEFF 		bl	moveCurrentPieceDown
 100              	.LVL1:
  21:Core/Src/game.c **** }
 101              		.loc 1 21 0
 102 0008 0022     		movs	r2, #0
 103 000a 024B     		ldr	r3, .L10+4
 104 000c 1A60     		str	r2, [r3]
 105 000e 08BD     		pop	{r3, pc}
 106              	.L11:
 107              		.align	2
 108              	.L10:
 109 0010 00000000 		.word	board
 110 0014 00000000 		.word	.LANCHOR1
 111              		.cfi_endproc
 112              	.LFE736:
 114              		.section	.text.RIGHT,"ax",%progbits
 115              		.align	1
 116              		.global	RIGHT
 117              		.syntax unified
 118              		.thumb
 119              		.thumb_func
 120              		.fpu fpv4-sp-d16
 122              	RIGHT:
 123              	.LFB737:
  24:Core/Src/game.c ****     moveCurrentPieceRight(&board);
 124              		.loc 1 24 0
 125              		.cfi_startproc
 126              		@ args = 0, pretend = 0, frame = 0
 127              		@ frame_needed = 0, uses_anonymous_args = 0
 128 0000 08B5     		push	{r3, lr}
 129              	.LCFI2:
 130              		.cfi_def_cfa_offset 8
 131              		.cfi_offset 3, -8
ARM GAS  /tmp/ccdh1ORM.s 			page 4


 132              		.cfi_offset 14, -4
  25:Core/Src/game.c **** }
 133              		.loc 1 25 0
 134 0002 0248     		ldr	r0, .L14
 135 0004 FFF7FEFF 		bl	moveCurrentPieceRight
 136              	.LVL2:
 137 0008 08BD     		pop	{r3, pc}
 138              	.L15:
 139 000a 00BF     		.align	2
 140              	.L14:
 141 000c 00000000 		.word	board
 142              		.cfi_endproc
 143              	.LFE737:
 145              		.section	.text.LEFT,"ax",%progbits
 146              		.align	1
 147              		.global	LEFT
 148              		.syntax unified
 149              		.thumb
 150              		.thumb_func
 151              		.fpu fpv4-sp-d16
 153              	LEFT:
 154              	.LFB738:
  28:Core/Src/game.c ****     moveCurrentPieceLeft(&board);
 155              		.loc 1 28 0
 156              		.cfi_startproc
 157              		@ args = 0, pretend = 0, frame = 0
 158              		@ frame_needed = 0, uses_anonymous_args = 0
 159 0000 08B5     		push	{r3, lr}
 160              	.LCFI3:
 161              		.cfi_def_cfa_offset 8
 162              		.cfi_offset 3, -8
 163              		.cfi_offset 14, -4
  29:Core/Src/game.c **** }
 164              		.loc 1 29 0
 165 0002 0248     		ldr	r0, .L18
 166 0004 FFF7FEFF 		bl	moveCurrentPieceLeft
 167              	.LVL3:
 168 0008 08BD     		pop	{r3, pc}
 169              	.L19:
 170 000a 00BF     		.align	2
 171              	.L18:
 172 000c 00000000 		.word	board
 173              		.cfi_endproc
 174              	.LFE738:
 176              		.section	.text.A,"ax",%progbits
 177              		.align	1
 178              		.global	A
 179              		.syntax unified
 180              		.thumb
 181              		.thumb_func
 182              		.fpu fpv4-sp-d16
 184              	A:
 185              	.LFB739:
  32:Core/Src/game.c ****     rotateCurrentPieceRight(&board);
 186              		.loc 1 32 0
 187              		.cfi_startproc
 188              		@ args = 0, pretend = 0, frame = 0
ARM GAS  /tmp/ccdh1ORM.s 			page 5


 189              		@ frame_needed = 0, uses_anonymous_args = 0
 190 0000 08B5     		push	{r3, lr}
 191              	.LCFI4:
 192              		.cfi_def_cfa_offset 8
 193              		.cfi_offset 3, -8
 194              		.cfi_offset 14, -4
  33:Core/Src/game.c **** }
 195              		.loc 1 33 0
 196 0002 0248     		ldr	r0, .L22
 197 0004 FFF7FEFF 		bl	rotateCurrentPieceRight
 198              	.LVL4:
 199 0008 08BD     		pop	{r3, pc}
 200              	.L23:
 201 000a 00BF     		.align	2
 202              	.L22:
 203 000c 00000000 		.word	board
 204              		.cfi_endproc
 205              	.LFE739:
 207              		.section	.text.B,"ax",%progbits
 208              		.align	1
 209              		.global	B
 210              		.syntax unified
 211              		.thumb
 212              		.thumb_func
 213              		.fpu fpv4-sp-d16
 215              	B:
 216              	.LFB740:
  36:Core/Src/game.c ****     rotateCurrentPieceLeft(&board);
 217              		.loc 1 36 0
 218              		.cfi_startproc
 219              		@ args = 0, pretend = 0, frame = 0
 220              		@ frame_needed = 0, uses_anonymous_args = 0
 221 0000 08B5     		push	{r3, lr}
 222              	.LCFI5:
 223              		.cfi_def_cfa_offset 8
 224              		.cfi_offset 3, -8
 225              		.cfi_offset 14, -4
  37:Core/Src/game.c **** }
 226              		.loc 1 37 0
 227 0002 0248     		ldr	r0, .L26
 228 0004 FFF7FEFF 		bl	rotateCurrentPieceLeft
 229              	.LVL5:
 230 0008 08BD     		pop	{r3, pc}
 231              	.L27:
 232 000a 00BF     		.align	2
 233              	.L26:
 234 000c 00000000 		.word	board
 235              		.cfi_endproc
 236              	.LFE740:
 238              		.section	.text.displayScore,"ax",%progbits
 239              		.align	1
 240              		.global	displayScore
 241              		.syntax unified
 242              		.thumb
 243              		.thumb_func
 244              		.fpu fpv4-sp-d16
 246              	displayScore:
ARM GAS  /tmp/ccdh1ORM.s 			page 6


 247              	.LFB742:
  42:Core/Src/game.c **** }
  43:Core/Src/game.c **** 
  44:Core/Src/game.c **** void displayScore(int score){
 248              		.loc 1 44 0
 249              		.cfi_startproc
 250              		@ args = 0, pretend = 0, frame = 8
 251              		@ frame_needed = 0, uses_anonymous_args = 0
 252              	.LVL6:
 253 0000 00B5     		push	{lr}
 254              	.LCFI6:
 255              		.cfi_def_cfa_offset 4
 256              		.cfi_offset 14, -4
 257 0002 85B0     		sub	sp, sp, #20
 258              	.LCFI7:
 259              		.cfi_def_cfa_offset 24
  45:Core/Src/game.c ****     char charScore[6]; 
  46:Core/Src/game.c ****     sprintf(charScore, "%d", score);
 260              		.loc 1 46 0
 261 0004 0246     		mov	r2, r0
 262 0006 0949     		ldr	r1, .L30
 263 0008 02A8     		add	r0, sp, #8
 264              	.LVL7:
 265 000a FFF7FEFF 		bl	sprintf
 266              	.LVL8:
  47:Core/Src/game.c ****     DrawText(charScore, 120, 150, WHITE, 2, BLACK);
 267              		.loc 1 47 0
 268 000e 0023     		movs	r3, #0
 269 0010 0193     		str	r3, [sp, #4]
 270 0012 0223     		movs	r3, #2
 271 0014 0093     		str	r3, [sp]
 272 0016 4FF6FF73 		movw	r3, #65535
 273 001a 9622     		movs	r2, #150
 274 001c 7821     		movs	r1, #120
 275 001e 02A8     		add	r0, sp, #8
 276 0020 FFF7FEFF 		bl	DrawText
 277              	.LVL9:
  48:Core/Src/game.c **** }
 278              		.loc 1 48 0
 279 0024 05B0     		add	sp, sp, #20
 280              	.LCFI8:
 281              		.cfi_def_cfa_offset 4
 282              		@ sp needed
 283 0026 5DF804FB 		ldr	pc, [sp], #4
 284              	.L31:
 285 002a 00BF     		.align	2
 286              	.L30:
 287 002c 00000000 		.word	.LC0
 288              		.cfi_endproc
 289              	.LFE742:
 291              		.section	.text.setButtonsInGame,"ax",%progbits
 292              		.align	1
 293              		.global	setButtonsInGame
 294              		.syntax unified
 295              		.thumb
 296              		.thumb_func
 297              		.fpu fpv4-sp-d16
ARM GAS  /tmp/ccdh1ORM.s 			page 7


 299              	setButtonsInGame:
 300              	.LFB743:
  49:Core/Src/game.c **** 
  50:Core/Src/game.c **** void setButtonsInGame(){
 301              		.loc 1 50 0
 302              		.cfi_startproc
 303              		@ args = 0, pretend = 0, frame = 0
 304              		@ frame_needed = 0, uses_anonymous_args = 0
 305 0000 08B5     		push	{r3, lr}
 306              	.LCFI9:
 307              		.cfi_def_cfa_offset 8
 308              		.cfi_offset 3, -8
 309              		.cfi_offset 14, -4
  51:Core/Src/game.c ****     setAfunction(&A);
 310              		.loc 1 51 0
 311 0002 0B48     		ldr	r0, .L34
 312 0004 FFF7FEFF 		bl	setAfunction
 313              	.LVL10:
  52:Core/Src/game.c ****     setBfunction(&B);
 314              		.loc 1 52 0
 315 0008 0A48     		ldr	r0, .L34+4
 316 000a FFF7FEFF 		bl	setBfunction
 317              	.LVL11:
  53:Core/Src/game.c ****     setUPfunction(&UP);
 318              		.loc 1 53 0
 319 000e 0A48     		ldr	r0, .L34+8
 320 0010 FFF7FEFF 		bl	setUPfunction
 321              	.LVL12:
  54:Core/Src/game.c ****     setDOWNfunction(&DOWN);
 322              		.loc 1 54 0
 323 0014 0948     		ldr	r0, .L34+12
 324 0016 FFF7FEFF 		bl	setDOWNfunction
 325              	.LVL13:
  55:Core/Src/game.c ****     setRIGHTfunction(&RIGHT);
 326              		.loc 1 55 0
 327 001a 0948     		ldr	r0, .L34+16
 328 001c FFF7FEFF 		bl	setRIGHTfunction
 329              	.LVL14:
  56:Core/Src/game.c ****     setLEFTfunction(&LEFT);
 330              		.loc 1 56 0
 331 0020 0848     		ldr	r0, .L34+20
 332 0022 FFF7FEFF 		bl	setLEFTfunction
 333              	.LVL15:
  57:Core/Src/game.c ****     setSTARTfunction(&START);
 334              		.loc 1 57 0
 335 0026 0848     		ldr	r0, .L34+24
 336 0028 FFF7FEFF 		bl	setSTARTfunction
 337              	.LVL16:
 338 002c 08BD     		pop	{r3, pc}
 339              	.L35:
 340 002e 00BF     		.align	2
 341              	.L34:
 342 0030 00000000 		.word	A
 343 0034 00000000 		.word	B
 344 0038 00000000 		.word	UP
 345 003c 00000000 		.word	DOWN
 346 0040 00000000 		.word	RIGHT
ARM GAS  /tmp/ccdh1ORM.s 			page 8


 347 0044 00000000 		.word	LEFT
 348 0048 00000000 		.word	START
 349              		.cfi_endproc
 350              	.LFE743:
 352              		.section	.text.setButtonsOutGame,"ax",%progbits
 353              		.align	1
 354              		.global	setButtonsOutGame
 355              		.syntax unified
 356              		.thumb
 357              		.thumb_func
 358              		.fpu fpv4-sp-d16
 360              	setButtonsOutGame:
 361              	.LFB744:
  58:Core/Src/game.c **** }
  59:Core/Src/game.c **** 
  60:Core/Src/game.c **** void setButtonsOutGame(){
 362              		.loc 1 60 0
 363              		.cfi_startproc
 364              		@ args = 0, pretend = 0, frame = 0
 365              		@ frame_needed = 0, uses_anonymous_args = 0
 366 0000 10B5     		push	{r4, lr}
 367              	.LCFI10:
 368              		.cfi_def_cfa_offset 8
 369              		.cfi_offset 4, -8
 370              		.cfi_offset 14, -4
  61:Core/Src/game.c ****     setAfunction(&emptyFunc);
 371              		.loc 1 61 0
 372 0002 0B4C     		ldr	r4, .L38
 373 0004 2046     		mov	r0, r4
 374 0006 FFF7FEFF 		bl	setAfunction
 375              	.LVL17:
  62:Core/Src/game.c ****     setBfunction(&emptyFunc);
 376              		.loc 1 62 0
 377 000a 2046     		mov	r0, r4
 378 000c FFF7FEFF 		bl	setBfunction
 379              	.LVL18:
  63:Core/Src/game.c ****     setUPfunction(&emptyFunc);
 380              		.loc 1 63 0
 381 0010 2046     		mov	r0, r4
 382 0012 FFF7FEFF 		bl	setUPfunction
 383              	.LVL19:
  64:Core/Src/game.c ****     setDOWNfunction(&emptyFunc);
 384              		.loc 1 64 0
 385 0016 2046     		mov	r0, r4
 386 0018 FFF7FEFF 		bl	setDOWNfunction
 387              	.LVL20:
  65:Core/Src/game.c ****     setRIGHTfunction(&emptyFunc);
 388              		.loc 1 65 0
 389 001c 2046     		mov	r0, r4
 390 001e FFF7FEFF 		bl	setRIGHTfunction
 391              	.LVL21:
  66:Core/Src/game.c ****     setLEFTfunction(&emptyFunc);
 392              		.loc 1 66 0
 393 0022 2046     		mov	r0, r4
 394 0024 FFF7FEFF 		bl	setLEFTfunction
 395              	.LVL22:
  67:Core/Src/game.c ****     setSTARTfunction(&START);
ARM GAS  /tmp/ccdh1ORM.s 			page 9


 396              		.loc 1 67 0
 397 0028 0248     		ldr	r0, .L38+4
 398 002a FFF7FEFF 		bl	setSTARTfunction
 399              	.LVL23:
 400 002e 10BD     		pop	{r4, pc}
 401              	.L39:
 402              		.align	2
 403              	.L38:
 404 0030 00000000 		.word	emptyFunc
 405 0034 00000000 		.word	START
 406              		.cfi_endproc
 407              	.LFE744:
 409              		.global	__aeabi_i2d
 410              		.global	__aeabi_dmul
 411              		.global	__aeabi_dadd
 412              		.global	__aeabi_d2iz
 413              		.section	.text.game,"ax",%progbits
 414              		.align	1
 415              		.global	game
 416              		.syntax unified
 417              		.thumb
 418              		.thumb_func
 419              		.fpu fpv4-sp-d16
 421              	game:
 422              	.LFB745:
  68:Core/Src/game.c **** }
  69:Core/Src/game.c **** 
  70:Core/Src/game.c **** int game(){ 
 423              		.loc 1 70 0
 424              		.cfi_startproc
 425              		@ args = 0, pretend = 0, frame = 24
 426              		@ frame_needed = 0, uses_anonymous_args = 0
 427 0000 2DE9F04F 		push	{r4, r5, r6, r7, r8, r9, r10, fp, lr}
 428              	.LCFI11:
 429              		.cfi_def_cfa_offset 36
 430              		.cfi_offset 4, -36
 431              		.cfi_offset 5, -32
 432              		.cfi_offset 6, -28
 433              		.cfi_offset 7, -24
 434              		.cfi_offset 8, -20
 435              		.cfi_offset 9, -16
 436              		.cfi_offset 10, -12
 437              		.cfi_offset 11, -8
 438              		.cfi_offset 14, -4
 439 0004 89B0     		sub	sp, sp, #36
 440              	.LCFI12:
 441              		.cfi_def_cfa_offset 72
  71:Core/Src/game.c ****     setButtonsInGame();   
 442              		.loc 1 71 0
 443 0006 FFF7FEFF 		bl	setButtonsInGame
 444              	.LVL24:
 445              	.LBB11:
 446              	.LBB12:
 447              		.file 2 "Drivers/STM32F4xx_HAL_Driver/Inc/stm32f4xx_ll_tim.h"
   1:Drivers/STM32F4xx_HAL_Driver/Inc/stm32f4xx_ll_tim.h **** /**
   2:Drivers/STM32F4xx_HAL_Driver/Inc/stm32f4xx_ll_tim.h ****   ******************************************************************************
   3:Drivers/STM32F4xx_HAL_Driver/Inc/stm32f4xx_ll_tim.h ****   * @file    stm32f4xx_ll_tim.h
ARM GAS  /tmp/ccdh1ORM.s 			page 10


   4:Drivers/STM32F4xx_HAL_Driver/Inc/stm32f4xx_ll_tim.h ****   * @author  MCD Application Team
   5:Drivers/STM32F4xx_HAL_Driver/Inc/stm32f4xx_ll_tim.h ****   * @brief   Header file of TIM LL module.
   6:Drivers/STM32F4xx_HAL_Driver/Inc/stm32f4xx_ll_tim.h ****   ******************************************************************************
   7:Drivers/STM32F4xx_HAL_Driver/Inc/stm32f4xx_ll_tim.h ****   * @attention
   8:Drivers/STM32F4xx_HAL_Driver/Inc/stm32f4xx_ll_tim.h ****   *
   9:Drivers/STM32F4xx_HAL_Driver/Inc/stm32f4xx_ll_tim.h ****   * <h2><center>&copy; Copyright (c) 2016 STMicroelectronics.
  10:Drivers/STM32F4xx_HAL_Driver/Inc/stm32f4xx_ll_tim.h ****   * All rights reserved.</center></h2>
  11:Drivers/STM32F4xx_HAL_Driver/Inc/stm32f4xx_ll_tim.h ****   *
  12:Drivers/STM32F4xx_HAL_Driver/Inc/stm32f4xx_ll_tim.h ****   * This software component is licensed by ST under BSD 3-Clause license,
  13:Drivers/STM32F4xx_HAL_Driver/Inc/stm32f4xx_ll_tim.h ****   * the "License"; You may not use this file except in compliance with the
  14:Drivers/STM32F4xx_HAL_Driver/Inc/stm32f4xx_ll_tim.h ****   * License. You may obtain a copy of the License at:
  15:Drivers/STM32F4xx_HAL_Driver/Inc/stm32f4xx_ll_tim.h ****   *                        opensource.org/licenses/BSD-3-Clause
  16:Drivers/STM32F4xx_HAL_Driver/Inc/stm32f4xx_ll_tim.h ****   *
  17:Drivers/STM32F4xx_HAL_Driver/Inc/stm32f4xx_ll_tim.h ****   ******************************************************************************
  18:Drivers/STM32F4xx_HAL_Driver/Inc/stm32f4xx_ll_tim.h ****   */
  19:Drivers/STM32F4xx_HAL_Driver/Inc/stm32f4xx_ll_tim.h **** 
  20:Drivers/STM32F4xx_HAL_Driver/Inc/stm32f4xx_ll_tim.h **** /* Define to prevent recursive inclusion -------------------------------------*/
  21:Drivers/STM32F4xx_HAL_Driver/Inc/stm32f4xx_ll_tim.h **** #ifndef __STM32F4xx_LL_TIM_H
  22:Drivers/STM32F4xx_HAL_Driver/Inc/stm32f4xx_ll_tim.h **** #define __STM32F4xx_LL_TIM_H
  23:Drivers/STM32F4xx_HAL_Driver/Inc/stm32f4xx_ll_tim.h **** 
  24:Drivers/STM32F4xx_HAL_Driver/Inc/stm32f4xx_ll_tim.h **** #ifdef __cplusplus
  25:Drivers/STM32F4xx_HAL_Driver/Inc/stm32f4xx_ll_tim.h **** extern "C" {
  26:Drivers/STM32F4xx_HAL_Driver/Inc/stm32f4xx_ll_tim.h **** #endif
  27:Drivers/STM32F4xx_HAL_Driver/Inc/stm32f4xx_ll_tim.h **** 
  28:Drivers/STM32F4xx_HAL_Driver/Inc/stm32f4xx_ll_tim.h **** /* Includes ------------------------------------------------------------------*/
  29:Drivers/STM32F4xx_HAL_Driver/Inc/stm32f4xx_ll_tim.h **** #include "stm32f4xx.h"
  30:Drivers/STM32F4xx_HAL_Driver/Inc/stm32f4xx_ll_tim.h **** 
  31:Drivers/STM32F4xx_HAL_Driver/Inc/stm32f4xx_ll_tim.h **** /** @addtogroup STM32F4xx_LL_Driver
  32:Drivers/STM32F4xx_HAL_Driver/Inc/stm32f4xx_ll_tim.h ****   * @{
  33:Drivers/STM32F4xx_HAL_Driver/Inc/stm32f4xx_ll_tim.h ****   */
  34:Drivers/STM32F4xx_HAL_Driver/Inc/stm32f4xx_ll_tim.h **** 
  35:Drivers/STM32F4xx_HAL_Driver/Inc/stm32f4xx_ll_tim.h **** #if defined (TIM1) || defined (TIM2) || defined (TIM3) || defined (TIM4) || defined (TIM5) || defin
  36:Drivers/STM32F4xx_HAL_Driver/Inc/stm32f4xx_ll_tim.h **** 
  37:Drivers/STM32F4xx_HAL_Driver/Inc/stm32f4xx_ll_tim.h **** /** @defgroup TIM_LL TIM
  38:Drivers/STM32F4xx_HAL_Driver/Inc/stm32f4xx_ll_tim.h ****   * @{
  39:Drivers/STM32F4xx_HAL_Driver/Inc/stm32f4xx_ll_tim.h ****   */
  40:Drivers/STM32F4xx_HAL_Driver/Inc/stm32f4xx_ll_tim.h **** 
  41:Drivers/STM32F4xx_HAL_Driver/Inc/stm32f4xx_ll_tim.h **** /* Private types -------------------------------------------------------------*/
  42:Drivers/STM32F4xx_HAL_Driver/Inc/stm32f4xx_ll_tim.h **** /* Private variables ---------------------------------------------------------*/
  43:Drivers/STM32F4xx_HAL_Driver/Inc/stm32f4xx_ll_tim.h **** /** @defgroup TIM_LL_Private_Variables TIM Private Variables
  44:Drivers/STM32F4xx_HAL_Driver/Inc/stm32f4xx_ll_tim.h ****   * @{
  45:Drivers/STM32F4xx_HAL_Driver/Inc/stm32f4xx_ll_tim.h ****   */
  46:Drivers/STM32F4xx_HAL_Driver/Inc/stm32f4xx_ll_tim.h **** static const uint8_t OFFSET_TAB_CCMRx[] =
  47:Drivers/STM32F4xx_HAL_Driver/Inc/stm32f4xx_ll_tim.h **** {
  48:Drivers/STM32F4xx_HAL_Driver/Inc/stm32f4xx_ll_tim.h ****   0x00U,   /* 0: TIMx_CH1  */
  49:Drivers/STM32F4xx_HAL_Driver/Inc/stm32f4xx_ll_tim.h ****   0x00U,   /* 1: TIMx_CH1N */
  50:Drivers/STM32F4xx_HAL_Driver/Inc/stm32f4xx_ll_tim.h ****   0x00U,   /* 2: TIMx_CH2  */
  51:Drivers/STM32F4xx_HAL_Driver/Inc/stm32f4xx_ll_tim.h ****   0x00U,   /* 3: TIMx_CH2N */
  52:Drivers/STM32F4xx_HAL_Driver/Inc/stm32f4xx_ll_tim.h ****   0x04U,   /* 4: TIMx_CH3  */
  53:Drivers/STM32F4xx_HAL_Driver/Inc/stm32f4xx_ll_tim.h ****   0x04U,   /* 5: TIMx_CH3N */
  54:Drivers/STM32F4xx_HAL_Driver/Inc/stm32f4xx_ll_tim.h ****   0x04U    /* 6: TIMx_CH4  */
  55:Drivers/STM32F4xx_HAL_Driver/Inc/stm32f4xx_ll_tim.h **** };
  56:Drivers/STM32F4xx_HAL_Driver/Inc/stm32f4xx_ll_tim.h **** 
  57:Drivers/STM32F4xx_HAL_Driver/Inc/stm32f4xx_ll_tim.h **** static const uint8_t SHIFT_TAB_OCxx[] =
  58:Drivers/STM32F4xx_HAL_Driver/Inc/stm32f4xx_ll_tim.h **** {
  59:Drivers/STM32F4xx_HAL_Driver/Inc/stm32f4xx_ll_tim.h ****   0U,            /* 0: OC1M, OC1FE, OC1PE */
  60:Drivers/STM32F4xx_HAL_Driver/Inc/stm32f4xx_ll_tim.h ****   0U,            /* 1: - NA */
ARM GAS  /tmp/ccdh1ORM.s 			page 11


  61:Drivers/STM32F4xx_HAL_Driver/Inc/stm32f4xx_ll_tim.h ****   8U,            /* 2: OC2M, OC2FE, OC2PE */
  62:Drivers/STM32F4xx_HAL_Driver/Inc/stm32f4xx_ll_tim.h ****   0U,            /* 3: - NA */
  63:Drivers/STM32F4xx_HAL_Driver/Inc/stm32f4xx_ll_tim.h ****   0U,            /* 4: OC3M, OC3FE, OC3PE */
  64:Drivers/STM32F4xx_HAL_Driver/Inc/stm32f4xx_ll_tim.h ****   0U,            /* 5: - NA */
  65:Drivers/STM32F4xx_HAL_Driver/Inc/stm32f4xx_ll_tim.h ****   8U             /* 6: OC4M, OC4FE, OC4PE */
  66:Drivers/STM32F4xx_HAL_Driver/Inc/stm32f4xx_ll_tim.h **** };
  67:Drivers/STM32F4xx_HAL_Driver/Inc/stm32f4xx_ll_tim.h **** 
  68:Drivers/STM32F4xx_HAL_Driver/Inc/stm32f4xx_ll_tim.h **** static const uint8_t SHIFT_TAB_ICxx[] =
  69:Drivers/STM32F4xx_HAL_Driver/Inc/stm32f4xx_ll_tim.h **** {
  70:Drivers/STM32F4xx_HAL_Driver/Inc/stm32f4xx_ll_tim.h ****   0U,            /* 0: CC1S, IC1PSC, IC1F */
  71:Drivers/STM32F4xx_HAL_Driver/Inc/stm32f4xx_ll_tim.h ****   0U,            /* 1: - NA */
  72:Drivers/STM32F4xx_HAL_Driver/Inc/stm32f4xx_ll_tim.h ****   8U,            /* 2: CC2S, IC2PSC, IC2F */
  73:Drivers/STM32F4xx_HAL_Driver/Inc/stm32f4xx_ll_tim.h ****   0U,            /* 3: - NA */
  74:Drivers/STM32F4xx_HAL_Driver/Inc/stm32f4xx_ll_tim.h ****   0U,            /* 4: CC3S, IC3PSC, IC3F */
  75:Drivers/STM32F4xx_HAL_Driver/Inc/stm32f4xx_ll_tim.h ****   0U,            /* 5: - NA */
  76:Drivers/STM32F4xx_HAL_Driver/Inc/stm32f4xx_ll_tim.h ****   8U             /* 6: CC4S, IC4PSC, IC4F */
  77:Drivers/STM32F4xx_HAL_Driver/Inc/stm32f4xx_ll_tim.h **** };
  78:Drivers/STM32F4xx_HAL_Driver/Inc/stm32f4xx_ll_tim.h **** 
  79:Drivers/STM32F4xx_HAL_Driver/Inc/stm32f4xx_ll_tim.h **** static const uint8_t SHIFT_TAB_CCxP[] =
  80:Drivers/STM32F4xx_HAL_Driver/Inc/stm32f4xx_ll_tim.h **** {
  81:Drivers/STM32F4xx_HAL_Driver/Inc/stm32f4xx_ll_tim.h ****   0U,            /* 0: CC1P */
  82:Drivers/STM32F4xx_HAL_Driver/Inc/stm32f4xx_ll_tim.h ****   2U,            /* 1: CC1NP */
  83:Drivers/STM32F4xx_HAL_Driver/Inc/stm32f4xx_ll_tim.h ****   4U,            /* 2: CC2P */
  84:Drivers/STM32F4xx_HAL_Driver/Inc/stm32f4xx_ll_tim.h ****   6U,            /* 3: CC2NP */
  85:Drivers/STM32F4xx_HAL_Driver/Inc/stm32f4xx_ll_tim.h ****   8U,            /* 4: CC3P */
  86:Drivers/STM32F4xx_HAL_Driver/Inc/stm32f4xx_ll_tim.h ****   10U,           /* 5: CC3NP */
  87:Drivers/STM32F4xx_HAL_Driver/Inc/stm32f4xx_ll_tim.h ****   12U            /* 6: CC4P */
  88:Drivers/STM32F4xx_HAL_Driver/Inc/stm32f4xx_ll_tim.h **** };
  89:Drivers/STM32F4xx_HAL_Driver/Inc/stm32f4xx_ll_tim.h **** 
  90:Drivers/STM32F4xx_HAL_Driver/Inc/stm32f4xx_ll_tim.h **** static const uint8_t SHIFT_TAB_OISx[] =
  91:Drivers/STM32F4xx_HAL_Driver/Inc/stm32f4xx_ll_tim.h **** {
  92:Drivers/STM32F4xx_HAL_Driver/Inc/stm32f4xx_ll_tim.h ****   0U,            /* 0: OIS1 */
  93:Drivers/STM32F4xx_HAL_Driver/Inc/stm32f4xx_ll_tim.h ****   1U,            /* 1: OIS1N */
  94:Drivers/STM32F4xx_HAL_Driver/Inc/stm32f4xx_ll_tim.h ****   2U,            /* 2: OIS2 */
  95:Drivers/STM32F4xx_HAL_Driver/Inc/stm32f4xx_ll_tim.h ****   3U,            /* 3: OIS2N */
  96:Drivers/STM32F4xx_HAL_Driver/Inc/stm32f4xx_ll_tim.h ****   4U,            /* 4: OIS3 */
  97:Drivers/STM32F4xx_HAL_Driver/Inc/stm32f4xx_ll_tim.h ****   5U,            /* 5: OIS3N */
  98:Drivers/STM32F4xx_HAL_Driver/Inc/stm32f4xx_ll_tim.h ****   6U             /* 6: OIS4 */
  99:Drivers/STM32F4xx_HAL_Driver/Inc/stm32f4xx_ll_tim.h **** };
 100:Drivers/STM32F4xx_HAL_Driver/Inc/stm32f4xx_ll_tim.h **** /**
 101:Drivers/STM32F4xx_HAL_Driver/Inc/stm32f4xx_ll_tim.h ****   * @}
 102:Drivers/STM32F4xx_HAL_Driver/Inc/stm32f4xx_ll_tim.h ****   */
 103:Drivers/STM32F4xx_HAL_Driver/Inc/stm32f4xx_ll_tim.h **** 
 104:Drivers/STM32F4xx_HAL_Driver/Inc/stm32f4xx_ll_tim.h **** /* Private constants ---------------------------------------------------------*/
 105:Drivers/STM32F4xx_HAL_Driver/Inc/stm32f4xx_ll_tim.h **** /** @defgroup TIM_LL_Private_Constants TIM Private Constants
 106:Drivers/STM32F4xx_HAL_Driver/Inc/stm32f4xx_ll_tim.h ****   * @{
 107:Drivers/STM32F4xx_HAL_Driver/Inc/stm32f4xx_ll_tim.h ****   */
 108:Drivers/STM32F4xx_HAL_Driver/Inc/stm32f4xx_ll_tim.h **** 
 109:Drivers/STM32F4xx_HAL_Driver/Inc/stm32f4xx_ll_tim.h **** 
 110:Drivers/STM32F4xx_HAL_Driver/Inc/stm32f4xx_ll_tim.h **** /* Remap mask definitions */
 111:Drivers/STM32F4xx_HAL_Driver/Inc/stm32f4xx_ll_tim.h **** #define TIMx_OR_RMP_SHIFT  16U
 112:Drivers/STM32F4xx_HAL_Driver/Inc/stm32f4xx_ll_tim.h **** #define TIMx_OR_RMP_MASK   0x0000FFFFU
 113:Drivers/STM32F4xx_HAL_Driver/Inc/stm32f4xx_ll_tim.h **** #define TIM2_OR_RMP_MASK   (TIM_OR_ITR1_RMP << TIMx_OR_RMP_SHIFT)
 114:Drivers/STM32F4xx_HAL_Driver/Inc/stm32f4xx_ll_tim.h **** #define TIM5_OR_RMP_MASK   (TIM_OR_TI4_RMP << TIMx_OR_RMP_SHIFT)
 115:Drivers/STM32F4xx_HAL_Driver/Inc/stm32f4xx_ll_tim.h **** #define TIM11_OR_RMP_MASK  (TIM_OR_TI1_RMP << TIMx_OR_RMP_SHIFT)
 116:Drivers/STM32F4xx_HAL_Driver/Inc/stm32f4xx_ll_tim.h **** 
 117:Drivers/STM32F4xx_HAL_Driver/Inc/stm32f4xx_ll_tim.h **** /* Mask used to set the TDG[x:0] of the DTG bits of the TIMx_BDTR register */
ARM GAS  /tmp/ccdh1ORM.s 			page 12


 118:Drivers/STM32F4xx_HAL_Driver/Inc/stm32f4xx_ll_tim.h **** #define DT_DELAY_1 ((uint8_t)0x7F)
 119:Drivers/STM32F4xx_HAL_Driver/Inc/stm32f4xx_ll_tim.h **** #define DT_DELAY_2 ((uint8_t)0x3F)
 120:Drivers/STM32F4xx_HAL_Driver/Inc/stm32f4xx_ll_tim.h **** #define DT_DELAY_3 ((uint8_t)0x1F)
 121:Drivers/STM32F4xx_HAL_Driver/Inc/stm32f4xx_ll_tim.h **** #define DT_DELAY_4 ((uint8_t)0x1F)
 122:Drivers/STM32F4xx_HAL_Driver/Inc/stm32f4xx_ll_tim.h **** 
 123:Drivers/STM32F4xx_HAL_Driver/Inc/stm32f4xx_ll_tim.h **** /* Mask used to set the DTG[7:5] bits of the DTG bits of the TIMx_BDTR register */
 124:Drivers/STM32F4xx_HAL_Driver/Inc/stm32f4xx_ll_tim.h **** #define DT_RANGE_1 ((uint8_t)0x00)
 125:Drivers/STM32F4xx_HAL_Driver/Inc/stm32f4xx_ll_tim.h **** #define DT_RANGE_2 ((uint8_t)0x80)
 126:Drivers/STM32F4xx_HAL_Driver/Inc/stm32f4xx_ll_tim.h **** #define DT_RANGE_3 ((uint8_t)0xC0)
 127:Drivers/STM32F4xx_HAL_Driver/Inc/stm32f4xx_ll_tim.h **** #define DT_RANGE_4 ((uint8_t)0xE0)
 128:Drivers/STM32F4xx_HAL_Driver/Inc/stm32f4xx_ll_tim.h **** 
 129:Drivers/STM32F4xx_HAL_Driver/Inc/stm32f4xx_ll_tim.h **** 
 130:Drivers/STM32F4xx_HAL_Driver/Inc/stm32f4xx_ll_tim.h **** /**
 131:Drivers/STM32F4xx_HAL_Driver/Inc/stm32f4xx_ll_tim.h ****   * @}
 132:Drivers/STM32F4xx_HAL_Driver/Inc/stm32f4xx_ll_tim.h ****   */
 133:Drivers/STM32F4xx_HAL_Driver/Inc/stm32f4xx_ll_tim.h **** 
 134:Drivers/STM32F4xx_HAL_Driver/Inc/stm32f4xx_ll_tim.h **** /* Private macros ------------------------------------------------------------*/
 135:Drivers/STM32F4xx_HAL_Driver/Inc/stm32f4xx_ll_tim.h **** /** @defgroup TIM_LL_Private_Macros TIM Private Macros
 136:Drivers/STM32F4xx_HAL_Driver/Inc/stm32f4xx_ll_tim.h ****   * @{
 137:Drivers/STM32F4xx_HAL_Driver/Inc/stm32f4xx_ll_tim.h ****   */
 138:Drivers/STM32F4xx_HAL_Driver/Inc/stm32f4xx_ll_tim.h **** /** @brief  Convert channel id into channel index.
 139:Drivers/STM32F4xx_HAL_Driver/Inc/stm32f4xx_ll_tim.h ****   * @param  __CHANNEL__ This parameter can be one of the following values:
 140:Drivers/STM32F4xx_HAL_Driver/Inc/stm32f4xx_ll_tim.h ****   *         @arg @ref LL_TIM_CHANNEL_CH1
 141:Drivers/STM32F4xx_HAL_Driver/Inc/stm32f4xx_ll_tim.h ****   *         @arg @ref LL_TIM_CHANNEL_CH1N
 142:Drivers/STM32F4xx_HAL_Driver/Inc/stm32f4xx_ll_tim.h ****   *         @arg @ref LL_TIM_CHANNEL_CH2
 143:Drivers/STM32F4xx_HAL_Driver/Inc/stm32f4xx_ll_tim.h ****   *         @arg @ref LL_TIM_CHANNEL_CH2N
 144:Drivers/STM32F4xx_HAL_Driver/Inc/stm32f4xx_ll_tim.h ****   *         @arg @ref LL_TIM_CHANNEL_CH3
 145:Drivers/STM32F4xx_HAL_Driver/Inc/stm32f4xx_ll_tim.h ****   *         @arg @ref LL_TIM_CHANNEL_CH3N
 146:Drivers/STM32F4xx_HAL_Driver/Inc/stm32f4xx_ll_tim.h ****   *         @arg @ref LL_TIM_CHANNEL_CH4
 147:Drivers/STM32F4xx_HAL_Driver/Inc/stm32f4xx_ll_tim.h ****   * @retval none
 148:Drivers/STM32F4xx_HAL_Driver/Inc/stm32f4xx_ll_tim.h ****   */
 149:Drivers/STM32F4xx_HAL_Driver/Inc/stm32f4xx_ll_tim.h **** #define TIM_GET_CHANNEL_INDEX( __CHANNEL__) \
 150:Drivers/STM32F4xx_HAL_Driver/Inc/stm32f4xx_ll_tim.h ****   (((__CHANNEL__) == LL_TIM_CHANNEL_CH1) ? 0U :\
 151:Drivers/STM32F4xx_HAL_Driver/Inc/stm32f4xx_ll_tim.h ****    ((__CHANNEL__) == LL_TIM_CHANNEL_CH1N) ? 1U :\
 152:Drivers/STM32F4xx_HAL_Driver/Inc/stm32f4xx_ll_tim.h ****    ((__CHANNEL__) == LL_TIM_CHANNEL_CH2) ? 2U :\
 153:Drivers/STM32F4xx_HAL_Driver/Inc/stm32f4xx_ll_tim.h ****    ((__CHANNEL__) == LL_TIM_CHANNEL_CH2N) ? 3U :\
 154:Drivers/STM32F4xx_HAL_Driver/Inc/stm32f4xx_ll_tim.h ****    ((__CHANNEL__) == LL_TIM_CHANNEL_CH3) ? 4U :\
 155:Drivers/STM32F4xx_HAL_Driver/Inc/stm32f4xx_ll_tim.h ****    ((__CHANNEL__) == LL_TIM_CHANNEL_CH3N) ? 5U : 6U)
 156:Drivers/STM32F4xx_HAL_Driver/Inc/stm32f4xx_ll_tim.h **** 
 157:Drivers/STM32F4xx_HAL_Driver/Inc/stm32f4xx_ll_tim.h **** /** @brief  Calculate the deadtime sampling period(in ps).
 158:Drivers/STM32F4xx_HAL_Driver/Inc/stm32f4xx_ll_tim.h ****   * @param  __TIMCLK__ timer input clock frequency (in Hz).
 159:Drivers/STM32F4xx_HAL_Driver/Inc/stm32f4xx_ll_tim.h ****   * @param  __CKD__ This parameter can be one of the following values:
 160:Drivers/STM32F4xx_HAL_Driver/Inc/stm32f4xx_ll_tim.h ****   *         @arg @ref LL_TIM_CLOCKDIVISION_DIV1
 161:Drivers/STM32F4xx_HAL_Driver/Inc/stm32f4xx_ll_tim.h ****   *         @arg @ref LL_TIM_CLOCKDIVISION_DIV2
 162:Drivers/STM32F4xx_HAL_Driver/Inc/stm32f4xx_ll_tim.h ****   *         @arg @ref LL_TIM_CLOCKDIVISION_DIV4
 163:Drivers/STM32F4xx_HAL_Driver/Inc/stm32f4xx_ll_tim.h ****   * @retval none
 164:Drivers/STM32F4xx_HAL_Driver/Inc/stm32f4xx_ll_tim.h ****   */
 165:Drivers/STM32F4xx_HAL_Driver/Inc/stm32f4xx_ll_tim.h **** #define TIM_CALC_DTS(__TIMCLK__, __CKD__)                                                        \
 166:Drivers/STM32F4xx_HAL_Driver/Inc/stm32f4xx_ll_tim.h ****   (((__CKD__) == LL_TIM_CLOCKDIVISION_DIV1) ? ((uint64_t)1000000000000U/(__TIMCLK__))         : \
 167:Drivers/STM32F4xx_HAL_Driver/Inc/stm32f4xx_ll_tim.h ****    ((__CKD__) == LL_TIM_CLOCKDIVISION_DIV2) ? ((uint64_t)1000000000000U/((__TIMCLK__) >> 1U)) : \
 168:Drivers/STM32F4xx_HAL_Driver/Inc/stm32f4xx_ll_tim.h ****    ((uint64_t)1000000000000U/((__TIMCLK__) >> 2U)))
 169:Drivers/STM32F4xx_HAL_Driver/Inc/stm32f4xx_ll_tim.h **** /**
 170:Drivers/STM32F4xx_HAL_Driver/Inc/stm32f4xx_ll_tim.h ****   * @}
 171:Drivers/STM32F4xx_HAL_Driver/Inc/stm32f4xx_ll_tim.h ****   */
 172:Drivers/STM32F4xx_HAL_Driver/Inc/stm32f4xx_ll_tim.h **** 
 173:Drivers/STM32F4xx_HAL_Driver/Inc/stm32f4xx_ll_tim.h **** 
 174:Drivers/STM32F4xx_HAL_Driver/Inc/stm32f4xx_ll_tim.h **** /* Exported types ------------------------------------------------------------*/
ARM GAS  /tmp/ccdh1ORM.s 			page 13


 175:Drivers/STM32F4xx_HAL_Driver/Inc/stm32f4xx_ll_tim.h **** #if defined(USE_FULL_LL_DRIVER)
 176:Drivers/STM32F4xx_HAL_Driver/Inc/stm32f4xx_ll_tim.h **** /** @defgroup TIM_LL_ES_INIT TIM Exported Init structure
 177:Drivers/STM32F4xx_HAL_Driver/Inc/stm32f4xx_ll_tim.h ****   * @{
 178:Drivers/STM32F4xx_HAL_Driver/Inc/stm32f4xx_ll_tim.h ****   */
 179:Drivers/STM32F4xx_HAL_Driver/Inc/stm32f4xx_ll_tim.h **** 
 180:Drivers/STM32F4xx_HAL_Driver/Inc/stm32f4xx_ll_tim.h **** /**
 181:Drivers/STM32F4xx_HAL_Driver/Inc/stm32f4xx_ll_tim.h ****   * @brief  TIM Time Base configuration structure definition.
 182:Drivers/STM32F4xx_HAL_Driver/Inc/stm32f4xx_ll_tim.h ****   */
 183:Drivers/STM32F4xx_HAL_Driver/Inc/stm32f4xx_ll_tim.h **** typedef struct
 184:Drivers/STM32F4xx_HAL_Driver/Inc/stm32f4xx_ll_tim.h **** {
 185:Drivers/STM32F4xx_HAL_Driver/Inc/stm32f4xx_ll_tim.h ****   uint16_t Prescaler;         /*!< Specifies the prescaler value used to divide the TIM clock.
 186:Drivers/STM32F4xx_HAL_Driver/Inc/stm32f4xx_ll_tim.h ****                                    This parameter can be a number between Min_Data=0x0000 and Max_D
 187:Drivers/STM32F4xx_HAL_Driver/Inc/stm32f4xx_ll_tim.h **** 
 188:Drivers/STM32F4xx_HAL_Driver/Inc/stm32f4xx_ll_tim.h ****                                    This feature can be modified afterwards using unitary function
 189:Drivers/STM32F4xx_HAL_Driver/Inc/stm32f4xx_ll_tim.h ****                                    @ref LL_TIM_SetPrescaler().*/
 190:Drivers/STM32F4xx_HAL_Driver/Inc/stm32f4xx_ll_tim.h **** 
 191:Drivers/STM32F4xx_HAL_Driver/Inc/stm32f4xx_ll_tim.h ****   uint32_t CounterMode;       /*!< Specifies the counter mode.
 192:Drivers/STM32F4xx_HAL_Driver/Inc/stm32f4xx_ll_tim.h ****                                    This parameter can be a value of @ref TIM_LL_EC_COUNTERMODE.
 193:Drivers/STM32F4xx_HAL_Driver/Inc/stm32f4xx_ll_tim.h **** 
 194:Drivers/STM32F4xx_HAL_Driver/Inc/stm32f4xx_ll_tim.h ****                                    This feature can be modified afterwards using unitary function
 195:Drivers/STM32F4xx_HAL_Driver/Inc/stm32f4xx_ll_tim.h ****                                    @ref LL_TIM_SetCounterMode().*/
 196:Drivers/STM32F4xx_HAL_Driver/Inc/stm32f4xx_ll_tim.h **** 
 197:Drivers/STM32F4xx_HAL_Driver/Inc/stm32f4xx_ll_tim.h ****   uint32_t Autoreload;        /*!< Specifies the auto reload value to be loaded into the active
 198:Drivers/STM32F4xx_HAL_Driver/Inc/stm32f4xx_ll_tim.h ****                                    Auto-Reload Register at the next update event.
 199:Drivers/STM32F4xx_HAL_Driver/Inc/stm32f4xx_ll_tim.h ****                                    This parameter must be a number between Min_Data=0x0000 and Max_
 200:Drivers/STM32F4xx_HAL_Driver/Inc/stm32f4xx_ll_tim.h ****                                    Some timer instances may support 32 bits counters. In that case 
 201:Drivers/STM32F4xx_HAL_Driver/Inc/stm32f4xx_ll_tim.h ****                                    be a number between 0x0000 and 0xFFFFFFFF.
 202:Drivers/STM32F4xx_HAL_Driver/Inc/stm32f4xx_ll_tim.h **** 
 203:Drivers/STM32F4xx_HAL_Driver/Inc/stm32f4xx_ll_tim.h ****                                    This feature can be modified afterwards using unitary function
 204:Drivers/STM32F4xx_HAL_Driver/Inc/stm32f4xx_ll_tim.h ****                                    @ref LL_TIM_SetAutoReload().*/
 205:Drivers/STM32F4xx_HAL_Driver/Inc/stm32f4xx_ll_tim.h **** 
 206:Drivers/STM32F4xx_HAL_Driver/Inc/stm32f4xx_ll_tim.h ****   uint32_t ClockDivision;     /*!< Specifies the clock division.
 207:Drivers/STM32F4xx_HAL_Driver/Inc/stm32f4xx_ll_tim.h ****                                    This parameter can be a value of @ref TIM_LL_EC_CLOCKDIVISION.
 208:Drivers/STM32F4xx_HAL_Driver/Inc/stm32f4xx_ll_tim.h **** 
 209:Drivers/STM32F4xx_HAL_Driver/Inc/stm32f4xx_ll_tim.h ****                                    This feature can be modified afterwards using unitary function
 210:Drivers/STM32F4xx_HAL_Driver/Inc/stm32f4xx_ll_tim.h ****                                    @ref LL_TIM_SetClockDivision().*/
 211:Drivers/STM32F4xx_HAL_Driver/Inc/stm32f4xx_ll_tim.h **** 
 212:Drivers/STM32F4xx_HAL_Driver/Inc/stm32f4xx_ll_tim.h ****   uint32_t RepetitionCounter;  /*!< Specifies the repetition counter value. Each time the RCR downc
 213:Drivers/STM32F4xx_HAL_Driver/Inc/stm32f4xx_ll_tim.h ****                                    reaches zero, an update event is generated and counting restarts
 214:Drivers/STM32F4xx_HAL_Driver/Inc/stm32f4xx_ll_tim.h ****                                    from the RCR value (N).
 215:Drivers/STM32F4xx_HAL_Driver/Inc/stm32f4xx_ll_tim.h ****                                    This means in PWM mode that (N+1) corresponds to:
 216:Drivers/STM32F4xx_HAL_Driver/Inc/stm32f4xx_ll_tim.h ****                                       - the number of PWM periods in edge-aligned mode
 217:Drivers/STM32F4xx_HAL_Driver/Inc/stm32f4xx_ll_tim.h ****                                       - the number of half PWM period in center-aligned mode
 218:Drivers/STM32F4xx_HAL_Driver/Inc/stm32f4xx_ll_tim.h ****                                    GP timers: this parameter must be a number between Min_Data = 0x
 219:Drivers/STM32F4xx_HAL_Driver/Inc/stm32f4xx_ll_tim.h ****                                    Max_Data = 0xFF.
 220:Drivers/STM32F4xx_HAL_Driver/Inc/stm32f4xx_ll_tim.h ****                                    Advanced timers: this parameter must be a number between Min_Dat
 221:Drivers/STM32F4xx_HAL_Driver/Inc/stm32f4xx_ll_tim.h ****                                    Max_Data = 0xFFFF.
 222:Drivers/STM32F4xx_HAL_Driver/Inc/stm32f4xx_ll_tim.h **** 
 223:Drivers/STM32F4xx_HAL_Driver/Inc/stm32f4xx_ll_tim.h ****                                    This feature can be modified afterwards using unitary function
 224:Drivers/STM32F4xx_HAL_Driver/Inc/stm32f4xx_ll_tim.h ****                                    @ref LL_TIM_SetRepetitionCounter().*/
 225:Drivers/STM32F4xx_HAL_Driver/Inc/stm32f4xx_ll_tim.h **** } LL_TIM_InitTypeDef;
 226:Drivers/STM32F4xx_HAL_Driver/Inc/stm32f4xx_ll_tim.h **** 
 227:Drivers/STM32F4xx_HAL_Driver/Inc/stm32f4xx_ll_tim.h **** /**
 228:Drivers/STM32F4xx_HAL_Driver/Inc/stm32f4xx_ll_tim.h ****   * @brief  TIM Output Compare configuration structure definition.
 229:Drivers/STM32F4xx_HAL_Driver/Inc/stm32f4xx_ll_tim.h ****   */
 230:Drivers/STM32F4xx_HAL_Driver/Inc/stm32f4xx_ll_tim.h **** typedef struct
 231:Drivers/STM32F4xx_HAL_Driver/Inc/stm32f4xx_ll_tim.h **** {
ARM GAS  /tmp/ccdh1ORM.s 			page 14


 232:Drivers/STM32F4xx_HAL_Driver/Inc/stm32f4xx_ll_tim.h ****   uint32_t OCMode;        /*!< Specifies the output mode.
 233:Drivers/STM32F4xx_HAL_Driver/Inc/stm32f4xx_ll_tim.h ****                                This parameter can be a value of @ref TIM_LL_EC_OCMODE.
 234:Drivers/STM32F4xx_HAL_Driver/Inc/stm32f4xx_ll_tim.h **** 
 235:Drivers/STM32F4xx_HAL_Driver/Inc/stm32f4xx_ll_tim.h ****                                This feature can be modified afterwards using unitary function
 236:Drivers/STM32F4xx_HAL_Driver/Inc/stm32f4xx_ll_tim.h ****                                @ref LL_TIM_OC_SetMode().*/
 237:Drivers/STM32F4xx_HAL_Driver/Inc/stm32f4xx_ll_tim.h **** 
 238:Drivers/STM32F4xx_HAL_Driver/Inc/stm32f4xx_ll_tim.h ****   uint32_t OCState;       /*!< Specifies the TIM Output Compare state.
 239:Drivers/STM32F4xx_HAL_Driver/Inc/stm32f4xx_ll_tim.h ****                                This parameter can be a value of @ref TIM_LL_EC_OCSTATE.
 240:Drivers/STM32F4xx_HAL_Driver/Inc/stm32f4xx_ll_tim.h **** 
 241:Drivers/STM32F4xx_HAL_Driver/Inc/stm32f4xx_ll_tim.h ****                                This feature can be modified afterwards using unitary functions
 242:Drivers/STM32F4xx_HAL_Driver/Inc/stm32f4xx_ll_tim.h ****                                @ref LL_TIM_CC_EnableChannel() or @ref LL_TIM_CC_DisableChannel().*/
 243:Drivers/STM32F4xx_HAL_Driver/Inc/stm32f4xx_ll_tim.h **** 
 244:Drivers/STM32F4xx_HAL_Driver/Inc/stm32f4xx_ll_tim.h ****   uint32_t OCNState;      /*!< Specifies the TIM complementary Output Compare state.
 245:Drivers/STM32F4xx_HAL_Driver/Inc/stm32f4xx_ll_tim.h ****                                This parameter can be a value of @ref TIM_LL_EC_OCSTATE.
 246:Drivers/STM32F4xx_HAL_Driver/Inc/stm32f4xx_ll_tim.h **** 
 247:Drivers/STM32F4xx_HAL_Driver/Inc/stm32f4xx_ll_tim.h ****                                This feature can be modified afterwards using unitary functions
 248:Drivers/STM32F4xx_HAL_Driver/Inc/stm32f4xx_ll_tim.h ****                                @ref LL_TIM_CC_EnableChannel() or @ref LL_TIM_CC_DisableChannel().*/
 249:Drivers/STM32F4xx_HAL_Driver/Inc/stm32f4xx_ll_tim.h **** 
 250:Drivers/STM32F4xx_HAL_Driver/Inc/stm32f4xx_ll_tim.h ****   uint32_t CompareValue;  /*!< Specifies the Compare value to be loaded into the Capture Compare Re
 251:Drivers/STM32F4xx_HAL_Driver/Inc/stm32f4xx_ll_tim.h ****                                This parameter can be a number between Min_Data=0x0000 and Max_Data=
 252:Drivers/STM32F4xx_HAL_Driver/Inc/stm32f4xx_ll_tim.h **** 
 253:Drivers/STM32F4xx_HAL_Driver/Inc/stm32f4xx_ll_tim.h ****                                This feature can be modified afterwards using unitary function
 254:Drivers/STM32F4xx_HAL_Driver/Inc/stm32f4xx_ll_tim.h ****                                LL_TIM_OC_SetCompareCHx (x=1..6).*/
 255:Drivers/STM32F4xx_HAL_Driver/Inc/stm32f4xx_ll_tim.h **** 
 256:Drivers/STM32F4xx_HAL_Driver/Inc/stm32f4xx_ll_tim.h ****   uint32_t OCPolarity;    /*!< Specifies the output polarity.
 257:Drivers/STM32F4xx_HAL_Driver/Inc/stm32f4xx_ll_tim.h ****                                This parameter can be a value of @ref TIM_LL_EC_OCPOLARITY.
 258:Drivers/STM32F4xx_HAL_Driver/Inc/stm32f4xx_ll_tim.h **** 
 259:Drivers/STM32F4xx_HAL_Driver/Inc/stm32f4xx_ll_tim.h ****                                This feature can be modified afterwards using unitary function
 260:Drivers/STM32F4xx_HAL_Driver/Inc/stm32f4xx_ll_tim.h ****                                @ref LL_TIM_OC_SetPolarity().*/
 261:Drivers/STM32F4xx_HAL_Driver/Inc/stm32f4xx_ll_tim.h **** 
 262:Drivers/STM32F4xx_HAL_Driver/Inc/stm32f4xx_ll_tim.h ****   uint32_t OCNPolarity;   /*!< Specifies the complementary output polarity.
 263:Drivers/STM32F4xx_HAL_Driver/Inc/stm32f4xx_ll_tim.h ****                                This parameter can be a value of @ref TIM_LL_EC_OCPOLARITY.
 264:Drivers/STM32F4xx_HAL_Driver/Inc/stm32f4xx_ll_tim.h **** 
 265:Drivers/STM32F4xx_HAL_Driver/Inc/stm32f4xx_ll_tim.h ****                                This feature can be modified afterwards using unitary function
 266:Drivers/STM32F4xx_HAL_Driver/Inc/stm32f4xx_ll_tim.h ****                                @ref LL_TIM_OC_SetPolarity().*/
 267:Drivers/STM32F4xx_HAL_Driver/Inc/stm32f4xx_ll_tim.h **** 
 268:Drivers/STM32F4xx_HAL_Driver/Inc/stm32f4xx_ll_tim.h **** 
 269:Drivers/STM32F4xx_HAL_Driver/Inc/stm32f4xx_ll_tim.h ****   uint32_t OCIdleState;   /*!< Specifies the TIM Output Compare pin state during Idle state.
 270:Drivers/STM32F4xx_HAL_Driver/Inc/stm32f4xx_ll_tim.h ****                                This parameter can be a value of @ref TIM_LL_EC_OCIDLESTATE.
 271:Drivers/STM32F4xx_HAL_Driver/Inc/stm32f4xx_ll_tim.h **** 
 272:Drivers/STM32F4xx_HAL_Driver/Inc/stm32f4xx_ll_tim.h ****                                This feature can be modified afterwards using unitary function
 273:Drivers/STM32F4xx_HAL_Driver/Inc/stm32f4xx_ll_tim.h ****                                @ref LL_TIM_OC_SetIdleState().*/
 274:Drivers/STM32F4xx_HAL_Driver/Inc/stm32f4xx_ll_tim.h **** 
 275:Drivers/STM32F4xx_HAL_Driver/Inc/stm32f4xx_ll_tim.h ****   uint32_t OCNIdleState;  /*!< Specifies the TIM Output Compare pin state during Idle state.
 276:Drivers/STM32F4xx_HAL_Driver/Inc/stm32f4xx_ll_tim.h ****                                This parameter can be a value of @ref TIM_LL_EC_OCIDLESTATE.
 277:Drivers/STM32F4xx_HAL_Driver/Inc/stm32f4xx_ll_tim.h **** 
 278:Drivers/STM32F4xx_HAL_Driver/Inc/stm32f4xx_ll_tim.h ****                                This feature can be modified afterwards using unitary function
 279:Drivers/STM32F4xx_HAL_Driver/Inc/stm32f4xx_ll_tim.h ****                                @ref LL_TIM_OC_SetIdleState().*/
 280:Drivers/STM32F4xx_HAL_Driver/Inc/stm32f4xx_ll_tim.h **** } LL_TIM_OC_InitTypeDef;
 281:Drivers/STM32F4xx_HAL_Driver/Inc/stm32f4xx_ll_tim.h **** 
 282:Drivers/STM32F4xx_HAL_Driver/Inc/stm32f4xx_ll_tim.h **** /**
 283:Drivers/STM32F4xx_HAL_Driver/Inc/stm32f4xx_ll_tim.h ****   * @brief  TIM Input Capture configuration structure definition.
 284:Drivers/STM32F4xx_HAL_Driver/Inc/stm32f4xx_ll_tim.h ****   */
 285:Drivers/STM32F4xx_HAL_Driver/Inc/stm32f4xx_ll_tim.h **** 
 286:Drivers/STM32F4xx_HAL_Driver/Inc/stm32f4xx_ll_tim.h **** typedef struct
 287:Drivers/STM32F4xx_HAL_Driver/Inc/stm32f4xx_ll_tim.h **** {
 288:Drivers/STM32F4xx_HAL_Driver/Inc/stm32f4xx_ll_tim.h **** 
ARM GAS  /tmp/ccdh1ORM.s 			page 15


 289:Drivers/STM32F4xx_HAL_Driver/Inc/stm32f4xx_ll_tim.h ****   uint32_t ICPolarity;    /*!< Specifies the active edge of the input signal.
 290:Drivers/STM32F4xx_HAL_Driver/Inc/stm32f4xx_ll_tim.h ****                                This parameter can be a value of @ref TIM_LL_EC_IC_POLARITY.
 291:Drivers/STM32F4xx_HAL_Driver/Inc/stm32f4xx_ll_tim.h **** 
 292:Drivers/STM32F4xx_HAL_Driver/Inc/stm32f4xx_ll_tim.h ****                                This feature can be modified afterwards using unitary function
 293:Drivers/STM32F4xx_HAL_Driver/Inc/stm32f4xx_ll_tim.h ****                                @ref LL_TIM_IC_SetPolarity().*/
 294:Drivers/STM32F4xx_HAL_Driver/Inc/stm32f4xx_ll_tim.h **** 
 295:Drivers/STM32F4xx_HAL_Driver/Inc/stm32f4xx_ll_tim.h ****   uint32_t ICActiveInput; /*!< Specifies the input.
 296:Drivers/STM32F4xx_HAL_Driver/Inc/stm32f4xx_ll_tim.h ****                                This parameter can be a value of @ref TIM_LL_EC_ACTIVEINPUT.
 297:Drivers/STM32F4xx_HAL_Driver/Inc/stm32f4xx_ll_tim.h **** 
 298:Drivers/STM32F4xx_HAL_Driver/Inc/stm32f4xx_ll_tim.h ****                                This feature can be modified afterwards using unitary function
 299:Drivers/STM32F4xx_HAL_Driver/Inc/stm32f4xx_ll_tim.h ****                                @ref LL_TIM_IC_SetActiveInput().*/
 300:Drivers/STM32F4xx_HAL_Driver/Inc/stm32f4xx_ll_tim.h **** 
 301:Drivers/STM32F4xx_HAL_Driver/Inc/stm32f4xx_ll_tim.h ****   uint32_t ICPrescaler;   /*!< Specifies the Input Capture Prescaler.
 302:Drivers/STM32F4xx_HAL_Driver/Inc/stm32f4xx_ll_tim.h ****                                This parameter can be a value of @ref TIM_LL_EC_ICPSC.
 303:Drivers/STM32F4xx_HAL_Driver/Inc/stm32f4xx_ll_tim.h **** 
 304:Drivers/STM32F4xx_HAL_Driver/Inc/stm32f4xx_ll_tim.h ****                                This feature can be modified afterwards using unitary function
 305:Drivers/STM32F4xx_HAL_Driver/Inc/stm32f4xx_ll_tim.h ****                                @ref LL_TIM_IC_SetPrescaler().*/
 306:Drivers/STM32F4xx_HAL_Driver/Inc/stm32f4xx_ll_tim.h **** 
 307:Drivers/STM32F4xx_HAL_Driver/Inc/stm32f4xx_ll_tim.h ****   uint32_t ICFilter;      /*!< Specifies the input capture filter.
 308:Drivers/STM32F4xx_HAL_Driver/Inc/stm32f4xx_ll_tim.h ****                                This parameter can be a value of @ref TIM_LL_EC_IC_FILTER.
 309:Drivers/STM32F4xx_HAL_Driver/Inc/stm32f4xx_ll_tim.h **** 
 310:Drivers/STM32F4xx_HAL_Driver/Inc/stm32f4xx_ll_tim.h ****                                This feature can be modified afterwards using unitary function
 311:Drivers/STM32F4xx_HAL_Driver/Inc/stm32f4xx_ll_tim.h ****                                @ref LL_TIM_IC_SetFilter().*/
 312:Drivers/STM32F4xx_HAL_Driver/Inc/stm32f4xx_ll_tim.h **** } LL_TIM_IC_InitTypeDef;
 313:Drivers/STM32F4xx_HAL_Driver/Inc/stm32f4xx_ll_tim.h **** 
 314:Drivers/STM32F4xx_HAL_Driver/Inc/stm32f4xx_ll_tim.h **** 
 315:Drivers/STM32F4xx_HAL_Driver/Inc/stm32f4xx_ll_tim.h **** /**
 316:Drivers/STM32F4xx_HAL_Driver/Inc/stm32f4xx_ll_tim.h ****   * @brief  TIM Encoder interface configuration structure definition.
 317:Drivers/STM32F4xx_HAL_Driver/Inc/stm32f4xx_ll_tim.h ****   */
 318:Drivers/STM32F4xx_HAL_Driver/Inc/stm32f4xx_ll_tim.h **** typedef struct
 319:Drivers/STM32F4xx_HAL_Driver/Inc/stm32f4xx_ll_tim.h **** {
 320:Drivers/STM32F4xx_HAL_Driver/Inc/stm32f4xx_ll_tim.h ****   uint32_t EncoderMode;     /*!< Specifies the encoder resolution (x2 or x4).
 321:Drivers/STM32F4xx_HAL_Driver/Inc/stm32f4xx_ll_tim.h ****                                  This parameter can be a value of @ref TIM_LL_EC_ENCODERMODE.
 322:Drivers/STM32F4xx_HAL_Driver/Inc/stm32f4xx_ll_tim.h **** 
 323:Drivers/STM32F4xx_HAL_Driver/Inc/stm32f4xx_ll_tim.h ****                                  This feature can be modified afterwards using unitary function
 324:Drivers/STM32F4xx_HAL_Driver/Inc/stm32f4xx_ll_tim.h ****                                  @ref LL_TIM_SetEncoderMode().*/
 325:Drivers/STM32F4xx_HAL_Driver/Inc/stm32f4xx_ll_tim.h **** 
 326:Drivers/STM32F4xx_HAL_Driver/Inc/stm32f4xx_ll_tim.h ****   uint32_t IC1Polarity;     /*!< Specifies the active edge of TI1 input.
 327:Drivers/STM32F4xx_HAL_Driver/Inc/stm32f4xx_ll_tim.h ****                                  This parameter can be a value of @ref TIM_LL_EC_IC_POLARITY.
 328:Drivers/STM32F4xx_HAL_Driver/Inc/stm32f4xx_ll_tim.h **** 
 329:Drivers/STM32F4xx_HAL_Driver/Inc/stm32f4xx_ll_tim.h ****                                  This feature can be modified afterwards using unitary function
 330:Drivers/STM32F4xx_HAL_Driver/Inc/stm32f4xx_ll_tim.h ****                                  @ref LL_TIM_IC_SetPolarity().*/
 331:Drivers/STM32F4xx_HAL_Driver/Inc/stm32f4xx_ll_tim.h **** 
 332:Drivers/STM32F4xx_HAL_Driver/Inc/stm32f4xx_ll_tim.h ****   uint32_t IC1ActiveInput;  /*!< Specifies the TI1 input source
 333:Drivers/STM32F4xx_HAL_Driver/Inc/stm32f4xx_ll_tim.h ****                                  This parameter can be a value of @ref TIM_LL_EC_ACTIVEINPUT.
 334:Drivers/STM32F4xx_HAL_Driver/Inc/stm32f4xx_ll_tim.h **** 
 335:Drivers/STM32F4xx_HAL_Driver/Inc/stm32f4xx_ll_tim.h ****                                  This feature can be modified afterwards using unitary function
 336:Drivers/STM32F4xx_HAL_Driver/Inc/stm32f4xx_ll_tim.h ****                                  @ref LL_TIM_IC_SetActiveInput().*/
 337:Drivers/STM32F4xx_HAL_Driver/Inc/stm32f4xx_ll_tim.h **** 
 338:Drivers/STM32F4xx_HAL_Driver/Inc/stm32f4xx_ll_tim.h ****   uint32_t IC1Prescaler;    /*!< Specifies the TI1 input prescaler value.
 339:Drivers/STM32F4xx_HAL_Driver/Inc/stm32f4xx_ll_tim.h ****                                  This parameter can be a value of @ref TIM_LL_EC_ICPSC.
 340:Drivers/STM32F4xx_HAL_Driver/Inc/stm32f4xx_ll_tim.h **** 
 341:Drivers/STM32F4xx_HAL_Driver/Inc/stm32f4xx_ll_tim.h ****                                  This feature can be modified afterwards using unitary function
 342:Drivers/STM32F4xx_HAL_Driver/Inc/stm32f4xx_ll_tim.h ****                                  @ref LL_TIM_IC_SetPrescaler().*/
 343:Drivers/STM32F4xx_HAL_Driver/Inc/stm32f4xx_ll_tim.h **** 
 344:Drivers/STM32F4xx_HAL_Driver/Inc/stm32f4xx_ll_tim.h ****   uint32_t IC1Filter;       /*!< Specifies the TI1 input filter.
 345:Drivers/STM32F4xx_HAL_Driver/Inc/stm32f4xx_ll_tim.h ****                                  This parameter can be a value of @ref TIM_LL_EC_IC_FILTER.
ARM GAS  /tmp/ccdh1ORM.s 			page 16


 346:Drivers/STM32F4xx_HAL_Driver/Inc/stm32f4xx_ll_tim.h **** 
 347:Drivers/STM32F4xx_HAL_Driver/Inc/stm32f4xx_ll_tim.h ****                                  This feature can be modified afterwards using unitary function
 348:Drivers/STM32F4xx_HAL_Driver/Inc/stm32f4xx_ll_tim.h ****                                  @ref LL_TIM_IC_SetFilter().*/
 349:Drivers/STM32F4xx_HAL_Driver/Inc/stm32f4xx_ll_tim.h **** 
 350:Drivers/STM32F4xx_HAL_Driver/Inc/stm32f4xx_ll_tim.h ****   uint32_t IC2Polarity;      /*!< Specifies the active edge of TI2 input.
 351:Drivers/STM32F4xx_HAL_Driver/Inc/stm32f4xx_ll_tim.h ****                                  This parameter can be a value of @ref TIM_LL_EC_IC_POLARITY.
 352:Drivers/STM32F4xx_HAL_Driver/Inc/stm32f4xx_ll_tim.h **** 
 353:Drivers/STM32F4xx_HAL_Driver/Inc/stm32f4xx_ll_tim.h ****                                  This feature can be modified afterwards using unitary function
 354:Drivers/STM32F4xx_HAL_Driver/Inc/stm32f4xx_ll_tim.h ****                                  @ref LL_TIM_IC_SetPolarity().*/
 355:Drivers/STM32F4xx_HAL_Driver/Inc/stm32f4xx_ll_tim.h **** 
 356:Drivers/STM32F4xx_HAL_Driver/Inc/stm32f4xx_ll_tim.h ****   uint32_t IC2ActiveInput;  /*!< Specifies the TI2 input source
 357:Drivers/STM32F4xx_HAL_Driver/Inc/stm32f4xx_ll_tim.h ****                                  This parameter can be a value of @ref TIM_LL_EC_ACTIVEINPUT.
 358:Drivers/STM32F4xx_HAL_Driver/Inc/stm32f4xx_ll_tim.h **** 
 359:Drivers/STM32F4xx_HAL_Driver/Inc/stm32f4xx_ll_tim.h ****                                  This feature can be modified afterwards using unitary function
 360:Drivers/STM32F4xx_HAL_Driver/Inc/stm32f4xx_ll_tim.h ****                                  @ref LL_TIM_IC_SetActiveInput().*/
 361:Drivers/STM32F4xx_HAL_Driver/Inc/stm32f4xx_ll_tim.h **** 
 362:Drivers/STM32F4xx_HAL_Driver/Inc/stm32f4xx_ll_tim.h ****   uint32_t IC2Prescaler;    /*!< Specifies the TI2 input prescaler value.
 363:Drivers/STM32F4xx_HAL_Driver/Inc/stm32f4xx_ll_tim.h ****                                  This parameter can be a value of @ref TIM_LL_EC_ICPSC.
 364:Drivers/STM32F4xx_HAL_Driver/Inc/stm32f4xx_ll_tim.h **** 
 365:Drivers/STM32F4xx_HAL_Driver/Inc/stm32f4xx_ll_tim.h ****                                  This feature can be modified afterwards using unitary function
 366:Drivers/STM32F4xx_HAL_Driver/Inc/stm32f4xx_ll_tim.h ****                                  @ref LL_TIM_IC_SetPrescaler().*/
 367:Drivers/STM32F4xx_HAL_Driver/Inc/stm32f4xx_ll_tim.h **** 
 368:Drivers/STM32F4xx_HAL_Driver/Inc/stm32f4xx_ll_tim.h ****   uint32_t IC2Filter;       /*!< Specifies the TI2 input filter.
 369:Drivers/STM32F4xx_HAL_Driver/Inc/stm32f4xx_ll_tim.h ****                                  This parameter can be a value of @ref TIM_LL_EC_IC_FILTER.
 370:Drivers/STM32F4xx_HAL_Driver/Inc/stm32f4xx_ll_tim.h **** 
 371:Drivers/STM32F4xx_HAL_Driver/Inc/stm32f4xx_ll_tim.h ****                                  This feature can be modified afterwards using unitary function
 372:Drivers/STM32F4xx_HAL_Driver/Inc/stm32f4xx_ll_tim.h ****                                  @ref LL_TIM_IC_SetFilter().*/
 373:Drivers/STM32F4xx_HAL_Driver/Inc/stm32f4xx_ll_tim.h **** 
 374:Drivers/STM32F4xx_HAL_Driver/Inc/stm32f4xx_ll_tim.h **** } LL_TIM_ENCODER_InitTypeDef;
 375:Drivers/STM32F4xx_HAL_Driver/Inc/stm32f4xx_ll_tim.h **** 
 376:Drivers/STM32F4xx_HAL_Driver/Inc/stm32f4xx_ll_tim.h **** /**
 377:Drivers/STM32F4xx_HAL_Driver/Inc/stm32f4xx_ll_tim.h ****   * @brief  TIM Hall sensor interface configuration structure definition.
 378:Drivers/STM32F4xx_HAL_Driver/Inc/stm32f4xx_ll_tim.h ****   */
 379:Drivers/STM32F4xx_HAL_Driver/Inc/stm32f4xx_ll_tim.h **** typedef struct
 380:Drivers/STM32F4xx_HAL_Driver/Inc/stm32f4xx_ll_tim.h **** {
 381:Drivers/STM32F4xx_HAL_Driver/Inc/stm32f4xx_ll_tim.h **** 
 382:Drivers/STM32F4xx_HAL_Driver/Inc/stm32f4xx_ll_tim.h ****   uint32_t IC1Polarity;        /*!< Specifies the active edge of TI1 input.
 383:Drivers/STM32F4xx_HAL_Driver/Inc/stm32f4xx_ll_tim.h ****                                     This parameter can be a value of @ref TIM_LL_EC_IC_POLARITY.
 384:Drivers/STM32F4xx_HAL_Driver/Inc/stm32f4xx_ll_tim.h **** 
 385:Drivers/STM32F4xx_HAL_Driver/Inc/stm32f4xx_ll_tim.h ****                                     This feature can be modified afterwards using unitary function
 386:Drivers/STM32F4xx_HAL_Driver/Inc/stm32f4xx_ll_tim.h ****                                     @ref LL_TIM_IC_SetPolarity().*/
 387:Drivers/STM32F4xx_HAL_Driver/Inc/stm32f4xx_ll_tim.h **** 
 388:Drivers/STM32F4xx_HAL_Driver/Inc/stm32f4xx_ll_tim.h ****   uint32_t IC1Prescaler;       /*!< Specifies the TI1 input prescaler value.
 389:Drivers/STM32F4xx_HAL_Driver/Inc/stm32f4xx_ll_tim.h ****                                     Prescaler must be set to get a maximum counter period longer th
 390:Drivers/STM32F4xx_HAL_Driver/Inc/stm32f4xx_ll_tim.h ****                                     time interval between 2 consecutive changes on the Hall inputs.
 391:Drivers/STM32F4xx_HAL_Driver/Inc/stm32f4xx_ll_tim.h ****                                     This parameter can be a value of @ref TIM_LL_EC_ICPSC.
 392:Drivers/STM32F4xx_HAL_Driver/Inc/stm32f4xx_ll_tim.h **** 
 393:Drivers/STM32F4xx_HAL_Driver/Inc/stm32f4xx_ll_tim.h ****                                     This feature can be modified afterwards using unitary function
 394:Drivers/STM32F4xx_HAL_Driver/Inc/stm32f4xx_ll_tim.h ****                                     @ref LL_TIM_IC_SetPrescaler().*/
 395:Drivers/STM32F4xx_HAL_Driver/Inc/stm32f4xx_ll_tim.h **** 
 396:Drivers/STM32F4xx_HAL_Driver/Inc/stm32f4xx_ll_tim.h ****   uint32_t IC1Filter;          /*!< Specifies the TI1 input filter.
 397:Drivers/STM32F4xx_HAL_Driver/Inc/stm32f4xx_ll_tim.h ****                                     This parameter can be a value of
 398:Drivers/STM32F4xx_HAL_Driver/Inc/stm32f4xx_ll_tim.h ****                                     @ref TIM_LL_EC_IC_FILTER.
 399:Drivers/STM32F4xx_HAL_Driver/Inc/stm32f4xx_ll_tim.h **** 
 400:Drivers/STM32F4xx_HAL_Driver/Inc/stm32f4xx_ll_tim.h ****                                     This feature can be modified afterwards using unitary function
 401:Drivers/STM32F4xx_HAL_Driver/Inc/stm32f4xx_ll_tim.h ****                                     @ref LL_TIM_IC_SetFilter().*/
 402:Drivers/STM32F4xx_HAL_Driver/Inc/stm32f4xx_ll_tim.h **** 
ARM GAS  /tmp/ccdh1ORM.s 			page 17


 403:Drivers/STM32F4xx_HAL_Driver/Inc/stm32f4xx_ll_tim.h ****   uint32_t CommutationDelay;   /*!< Specifies the compare value to be loaded into the Capture Compa
 404:Drivers/STM32F4xx_HAL_Driver/Inc/stm32f4xx_ll_tim.h ****                                     A positive pulse (TRGO event) is generated with a programmable 
 405:Drivers/STM32F4xx_HAL_Driver/Inc/stm32f4xx_ll_tim.h ****                                     a change occurs on the Hall inputs.
 406:Drivers/STM32F4xx_HAL_Driver/Inc/stm32f4xx_ll_tim.h ****                                     This parameter can be a number between Min_Data = 0x0000 and Ma
 407:Drivers/STM32F4xx_HAL_Driver/Inc/stm32f4xx_ll_tim.h **** 
 408:Drivers/STM32F4xx_HAL_Driver/Inc/stm32f4xx_ll_tim.h ****                                     This feature can be modified afterwards using unitary function
 409:Drivers/STM32F4xx_HAL_Driver/Inc/stm32f4xx_ll_tim.h ****                                     @ref LL_TIM_OC_SetCompareCH2().*/
 410:Drivers/STM32F4xx_HAL_Driver/Inc/stm32f4xx_ll_tim.h **** } LL_TIM_HALLSENSOR_InitTypeDef;
 411:Drivers/STM32F4xx_HAL_Driver/Inc/stm32f4xx_ll_tim.h **** 
 412:Drivers/STM32F4xx_HAL_Driver/Inc/stm32f4xx_ll_tim.h **** /**
 413:Drivers/STM32F4xx_HAL_Driver/Inc/stm32f4xx_ll_tim.h ****   * @brief  BDTR (Break and Dead Time) structure definition
 414:Drivers/STM32F4xx_HAL_Driver/Inc/stm32f4xx_ll_tim.h ****   */
 415:Drivers/STM32F4xx_HAL_Driver/Inc/stm32f4xx_ll_tim.h **** typedef struct
 416:Drivers/STM32F4xx_HAL_Driver/Inc/stm32f4xx_ll_tim.h **** {
 417:Drivers/STM32F4xx_HAL_Driver/Inc/stm32f4xx_ll_tim.h ****   uint32_t OSSRState;            /*!< Specifies the Off-State selection used in Run mode.
 418:Drivers/STM32F4xx_HAL_Driver/Inc/stm32f4xx_ll_tim.h ****                                       This parameter can be a value of @ref TIM_LL_EC_OSSR
 419:Drivers/STM32F4xx_HAL_Driver/Inc/stm32f4xx_ll_tim.h **** 
 420:Drivers/STM32F4xx_HAL_Driver/Inc/stm32f4xx_ll_tim.h ****                                       This feature can be modified afterwards using unitary functio
 421:Drivers/STM32F4xx_HAL_Driver/Inc/stm32f4xx_ll_tim.h ****                                       @ref LL_TIM_SetOffStates()
 422:Drivers/STM32F4xx_HAL_Driver/Inc/stm32f4xx_ll_tim.h **** 
 423:Drivers/STM32F4xx_HAL_Driver/Inc/stm32f4xx_ll_tim.h ****                                       @note This bit-field cannot be modified as long as LOCK level
 424:Drivers/STM32F4xx_HAL_Driver/Inc/stm32f4xx_ll_tim.h ****                                        programmed. */
 425:Drivers/STM32F4xx_HAL_Driver/Inc/stm32f4xx_ll_tim.h **** 
 426:Drivers/STM32F4xx_HAL_Driver/Inc/stm32f4xx_ll_tim.h ****   uint32_t OSSIState;            /*!< Specifies the Off-State used in Idle state.
 427:Drivers/STM32F4xx_HAL_Driver/Inc/stm32f4xx_ll_tim.h ****                                       This parameter can be a value of @ref TIM_LL_EC_OSSI
 428:Drivers/STM32F4xx_HAL_Driver/Inc/stm32f4xx_ll_tim.h **** 
 429:Drivers/STM32F4xx_HAL_Driver/Inc/stm32f4xx_ll_tim.h ****                                       This feature can be modified afterwards using unitary functio
 430:Drivers/STM32F4xx_HAL_Driver/Inc/stm32f4xx_ll_tim.h ****                                       @ref LL_TIM_SetOffStates()
 431:Drivers/STM32F4xx_HAL_Driver/Inc/stm32f4xx_ll_tim.h **** 
 432:Drivers/STM32F4xx_HAL_Driver/Inc/stm32f4xx_ll_tim.h ****                                       @note This bit-field cannot be modified as long as LOCK level
 433:Drivers/STM32F4xx_HAL_Driver/Inc/stm32f4xx_ll_tim.h ****                                       programmed. */
 434:Drivers/STM32F4xx_HAL_Driver/Inc/stm32f4xx_ll_tim.h **** 
 435:Drivers/STM32F4xx_HAL_Driver/Inc/stm32f4xx_ll_tim.h ****   uint32_t LockLevel;            /*!< Specifies the LOCK level parameters.
 436:Drivers/STM32F4xx_HAL_Driver/Inc/stm32f4xx_ll_tim.h ****                                       This parameter can be a value of @ref TIM_LL_EC_LOCKLEVEL
 437:Drivers/STM32F4xx_HAL_Driver/Inc/stm32f4xx_ll_tim.h **** 
 438:Drivers/STM32F4xx_HAL_Driver/Inc/stm32f4xx_ll_tim.h ****                                       @note The LOCK bits can be written only once after the reset.
 439:Drivers/STM32F4xx_HAL_Driver/Inc/stm32f4xx_ll_tim.h ****                                       register has been written, their content is frozen until the 
 440:Drivers/STM32F4xx_HAL_Driver/Inc/stm32f4xx_ll_tim.h **** 
 441:Drivers/STM32F4xx_HAL_Driver/Inc/stm32f4xx_ll_tim.h ****   uint8_t DeadTime;              /*!< Specifies the delay time between the switching-off and the
 442:Drivers/STM32F4xx_HAL_Driver/Inc/stm32f4xx_ll_tim.h ****                                       switching-on of the outputs.
 443:Drivers/STM32F4xx_HAL_Driver/Inc/stm32f4xx_ll_tim.h ****                                       This parameter can be a number between Min_Data = 0x00 and Ma
 444:Drivers/STM32F4xx_HAL_Driver/Inc/stm32f4xx_ll_tim.h **** 
 445:Drivers/STM32F4xx_HAL_Driver/Inc/stm32f4xx_ll_tim.h ****                                       This feature can be modified afterwards using unitary functio
 446:Drivers/STM32F4xx_HAL_Driver/Inc/stm32f4xx_ll_tim.h ****                                       @ref LL_TIM_OC_SetDeadTime()
 447:Drivers/STM32F4xx_HAL_Driver/Inc/stm32f4xx_ll_tim.h **** 
 448:Drivers/STM32F4xx_HAL_Driver/Inc/stm32f4xx_ll_tim.h ****                                       @note This bit-field can not be modified as long as LOCK leve
 449:Drivers/STM32F4xx_HAL_Driver/Inc/stm32f4xx_ll_tim.h ****                                        programmed. */
 450:Drivers/STM32F4xx_HAL_Driver/Inc/stm32f4xx_ll_tim.h **** 
 451:Drivers/STM32F4xx_HAL_Driver/Inc/stm32f4xx_ll_tim.h ****   uint16_t BreakState;           /*!< Specifies whether the TIM Break input is enabled or not.
 452:Drivers/STM32F4xx_HAL_Driver/Inc/stm32f4xx_ll_tim.h ****                                       This parameter can be a value of @ref TIM_LL_EC_BREAK_ENABLE
 453:Drivers/STM32F4xx_HAL_Driver/Inc/stm32f4xx_ll_tim.h **** 
 454:Drivers/STM32F4xx_HAL_Driver/Inc/stm32f4xx_ll_tim.h ****                                       This feature can be modified afterwards using unitary functio
 455:Drivers/STM32F4xx_HAL_Driver/Inc/stm32f4xx_ll_tim.h ****                                       @ref LL_TIM_EnableBRK() or @ref LL_TIM_DisableBRK()
 456:Drivers/STM32F4xx_HAL_Driver/Inc/stm32f4xx_ll_tim.h **** 
 457:Drivers/STM32F4xx_HAL_Driver/Inc/stm32f4xx_ll_tim.h ****                                       @note This bit-field can not be modified as long as LOCK leve
 458:Drivers/STM32F4xx_HAL_Driver/Inc/stm32f4xx_ll_tim.h ****                                       programmed. */
 459:Drivers/STM32F4xx_HAL_Driver/Inc/stm32f4xx_ll_tim.h **** 
ARM GAS  /tmp/ccdh1ORM.s 			page 18


 460:Drivers/STM32F4xx_HAL_Driver/Inc/stm32f4xx_ll_tim.h ****   uint32_t BreakPolarity;        /*!< Specifies the TIM Break Input pin polarity.
 461:Drivers/STM32F4xx_HAL_Driver/Inc/stm32f4xx_ll_tim.h ****                                       This parameter can be a value of @ref TIM_LL_EC_BREAK_POLARIT
 462:Drivers/STM32F4xx_HAL_Driver/Inc/stm32f4xx_ll_tim.h **** 
 463:Drivers/STM32F4xx_HAL_Driver/Inc/stm32f4xx_ll_tim.h ****                                       This feature can be modified afterwards using unitary functio
 464:Drivers/STM32F4xx_HAL_Driver/Inc/stm32f4xx_ll_tim.h ****                                       @ref LL_TIM_ConfigBRK()
 465:Drivers/STM32F4xx_HAL_Driver/Inc/stm32f4xx_ll_tim.h **** 
 466:Drivers/STM32F4xx_HAL_Driver/Inc/stm32f4xx_ll_tim.h ****                                       @note This bit-field can not be modified as long as LOCK leve
 467:Drivers/STM32F4xx_HAL_Driver/Inc/stm32f4xx_ll_tim.h ****                                       programmed. */
 468:Drivers/STM32F4xx_HAL_Driver/Inc/stm32f4xx_ll_tim.h **** 
 469:Drivers/STM32F4xx_HAL_Driver/Inc/stm32f4xx_ll_tim.h ****   uint32_t AutomaticOutput;      /*!< Specifies whether the TIM Automatic Output feature is enabled
 470:Drivers/STM32F4xx_HAL_Driver/Inc/stm32f4xx_ll_tim.h ****                                       This parameter can be a value of @ref TIM_LL_EC_AUTOMATICOUTP
 471:Drivers/STM32F4xx_HAL_Driver/Inc/stm32f4xx_ll_tim.h **** 
 472:Drivers/STM32F4xx_HAL_Driver/Inc/stm32f4xx_ll_tim.h ****                                       This feature can be modified afterwards using unitary functio
 473:Drivers/STM32F4xx_HAL_Driver/Inc/stm32f4xx_ll_tim.h ****                                       @ref LL_TIM_EnableAutomaticOutput() or @ref LL_TIM_DisableAut
 474:Drivers/STM32F4xx_HAL_Driver/Inc/stm32f4xx_ll_tim.h **** 
 475:Drivers/STM32F4xx_HAL_Driver/Inc/stm32f4xx_ll_tim.h ****                                       @note This bit-field can not be modified as long as LOCK leve
 476:Drivers/STM32F4xx_HAL_Driver/Inc/stm32f4xx_ll_tim.h ****                                       programmed. */
 477:Drivers/STM32F4xx_HAL_Driver/Inc/stm32f4xx_ll_tim.h **** } LL_TIM_BDTR_InitTypeDef;
 478:Drivers/STM32F4xx_HAL_Driver/Inc/stm32f4xx_ll_tim.h **** 
 479:Drivers/STM32F4xx_HAL_Driver/Inc/stm32f4xx_ll_tim.h **** /**
 480:Drivers/STM32F4xx_HAL_Driver/Inc/stm32f4xx_ll_tim.h ****   * @}
 481:Drivers/STM32F4xx_HAL_Driver/Inc/stm32f4xx_ll_tim.h ****   */
 482:Drivers/STM32F4xx_HAL_Driver/Inc/stm32f4xx_ll_tim.h **** #endif /* USE_FULL_LL_DRIVER */
 483:Drivers/STM32F4xx_HAL_Driver/Inc/stm32f4xx_ll_tim.h **** 
 484:Drivers/STM32F4xx_HAL_Driver/Inc/stm32f4xx_ll_tim.h **** /* Exported constants --------------------------------------------------------*/
 485:Drivers/STM32F4xx_HAL_Driver/Inc/stm32f4xx_ll_tim.h **** /** @defgroup TIM_LL_Exported_Constants TIM Exported Constants
 486:Drivers/STM32F4xx_HAL_Driver/Inc/stm32f4xx_ll_tim.h ****   * @{
 487:Drivers/STM32F4xx_HAL_Driver/Inc/stm32f4xx_ll_tim.h ****   */
 488:Drivers/STM32F4xx_HAL_Driver/Inc/stm32f4xx_ll_tim.h **** 
 489:Drivers/STM32F4xx_HAL_Driver/Inc/stm32f4xx_ll_tim.h **** /** @defgroup TIM_LL_EC_GET_FLAG Get Flags Defines
 490:Drivers/STM32F4xx_HAL_Driver/Inc/stm32f4xx_ll_tim.h ****   * @brief    Flags defines which can be used with LL_TIM_ReadReg function.
 491:Drivers/STM32F4xx_HAL_Driver/Inc/stm32f4xx_ll_tim.h ****   * @{
 492:Drivers/STM32F4xx_HAL_Driver/Inc/stm32f4xx_ll_tim.h ****   */
 493:Drivers/STM32F4xx_HAL_Driver/Inc/stm32f4xx_ll_tim.h **** #define LL_TIM_SR_UIF                          TIM_SR_UIF           /*!< Update interrupt flag */
 494:Drivers/STM32F4xx_HAL_Driver/Inc/stm32f4xx_ll_tim.h **** #define LL_TIM_SR_CC1IF                        TIM_SR_CC1IF         /*!< Capture/compare 1 interrup
 495:Drivers/STM32F4xx_HAL_Driver/Inc/stm32f4xx_ll_tim.h **** #define LL_TIM_SR_CC2IF                        TIM_SR_CC2IF         /*!< Capture/compare 2 interrup
 496:Drivers/STM32F4xx_HAL_Driver/Inc/stm32f4xx_ll_tim.h **** #define LL_TIM_SR_CC3IF                        TIM_SR_CC3IF         /*!< Capture/compare 3 interrup
 497:Drivers/STM32F4xx_HAL_Driver/Inc/stm32f4xx_ll_tim.h **** #define LL_TIM_SR_CC4IF                        TIM_SR_CC4IF         /*!< Capture/compare 4 interrup
 498:Drivers/STM32F4xx_HAL_Driver/Inc/stm32f4xx_ll_tim.h **** #define LL_TIM_SR_COMIF                        TIM_SR_COMIF         /*!< COM interrupt flag */
 499:Drivers/STM32F4xx_HAL_Driver/Inc/stm32f4xx_ll_tim.h **** #define LL_TIM_SR_TIF                          TIM_SR_TIF           /*!< Trigger interrupt flag */
 500:Drivers/STM32F4xx_HAL_Driver/Inc/stm32f4xx_ll_tim.h **** #define LL_TIM_SR_BIF                          TIM_SR_BIF           /*!< Break interrupt flag */
 501:Drivers/STM32F4xx_HAL_Driver/Inc/stm32f4xx_ll_tim.h **** #define LL_TIM_SR_CC1OF                        TIM_SR_CC1OF         /*!< Capture/Compare 1 overcapt
 502:Drivers/STM32F4xx_HAL_Driver/Inc/stm32f4xx_ll_tim.h **** #define LL_TIM_SR_CC2OF                        TIM_SR_CC2OF         /*!< Capture/Compare 2 overcapt
 503:Drivers/STM32F4xx_HAL_Driver/Inc/stm32f4xx_ll_tim.h **** #define LL_TIM_SR_CC3OF                        TIM_SR_CC3OF         /*!< Capture/Compare 3 overcapt
 504:Drivers/STM32F4xx_HAL_Driver/Inc/stm32f4xx_ll_tim.h **** #define LL_TIM_SR_CC4OF                        TIM_SR_CC4OF         /*!< Capture/Compare 4 overcapt
 505:Drivers/STM32F4xx_HAL_Driver/Inc/stm32f4xx_ll_tim.h **** /**
 506:Drivers/STM32F4xx_HAL_Driver/Inc/stm32f4xx_ll_tim.h ****   * @}
 507:Drivers/STM32F4xx_HAL_Driver/Inc/stm32f4xx_ll_tim.h ****   */
 508:Drivers/STM32F4xx_HAL_Driver/Inc/stm32f4xx_ll_tim.h **** 
 509:Drivers/STM32F4xx_HAL_Driver/Inc/stm32f4xx_ll_tim.h **** #if defined(USE_FULL_LL_DRIVER)
 510:Drivers/STM32F4xx_HAL_Driver/Inc/stm32f4xx_ll_tim.h **** /** @defgroup TIM_LL_EC_BREAK_ENABLE Break Enable
 511:Drivers/STM32F4xx_HAL_Driver/Inc/stm32f4xx_ll_tim.h ****   * @{
 512:Drivers/STM32F4xx_HAL_Driver/Inc/stm32f4xx_ll_tim.h ****   */
 513:Drivers/STM32F4xx_HAL_Driver/Inc/stm32f4xx_ll_tim.h **** #define LL_TIM_BREAK_DISABLE            0x00000000U             /*!< Break function disabled */
 514:Drivers/STM32F4xx_HAL_Driver/Inc/stm32f4xx_ll_tim.h **** #define LL_TIM_BREAK_ENABLE             TIM_BDTR_BKE            /*!< Break function enabled */
 515:Drivers/STM32F4xx_HAL_Driver/Inc/stm32f4xx_ll_tim.h **** /**
 516:Drivers/STM32F4xx_HAL_Driver/Inc/stm32f4xx_ll_tim.h ****   * @}
ARM GAS  /tmp/ccdh1ORM.s 			page 19


 517:Drivers/STM32F4xx_HAL_Driver/Inc/stm32f4xx_ll_tim.h ****   */
 518:Drivers/STM32F4xx_HAL_Driver/Inc/stm32f4xx_ll_tim.h **** 
 519:Drivers/STM32F4xx_HAL_Driver/Inc/stm32f4xx_ll_tim.h **** /** @defgroup TIM_LL_EC_AUTOMATICOUTPUT_ENABLE Automatic output enable
 520:Drivers/STM32F4xx_HAL_Driver/Inc/stm32f4xx_ll_tim.h ****   * @{
 521:Drivers/STM32F4xx_HAL_Driver/Inc/stm32f4xx_ll_tim.h ****   */
 522:Drivers/STM32F4xx_HAL_Driver/Inc/stm32f4xx_ll_tim.h **** #define LL_TIM_AUTOMATICOUTPUT_DISABLE         0x00000000U             /*!< MOE can be set only by 
 523:Drivers/STM32F4xx_HAL_Driver/Inc/stm32f4xx_ll_tim.h **** #define LL_TIM_AUTOMATICOUTPUT_ENABLE          TIM_BDTR_AOE            /*!< MOE can be set by softw
 524:Drivers/STM32F4xx_HAL_Driver/Inc/stm32f4xx_ll_tim.h **** /**
 525:Drivers/STM32F4xx_HAL_Driver/Inc/stm32f4xx_ll_tim.h ****   * @}
 526:Drivers/STM32F4xx_HAL_Driver/Inc/stm32f4xx_ll_tim.h ****   */
 527:Drivers/STM32F4xx_HAL_Driver/Inc/stm32f4xx_ll_tim.h **** #endif /* USE_FULL_LL_DRIVER */
 528:Drivers/STM32F4xx_HAL_Driver/Inc/stm32f4xx_ll_tim.h **** 
 529:Drivers/STM32F4xx_HAL_Driver/Inc/stm32f4xx_ll_tim.h **** /** @defgroup TIM_LL_EC_IT IT Defines
 530:Drivers/STM32F4xx_HAL_Driver/Inc/stm32f4xx_ll_tim.h ****   * @brief    IT defines which can be used with LL_TIM_ReadReg and  LL_TIM_WriteReg functions.
 531:Drivers/STM32F4xx_HAL_Driver/Inc/stm32f4xx_ll_tim.h ****   * @{
 532:Drivers/STM32F4xx_HAL_Driver/Inc/stm32f4xx_ll_tim.h ****   */
 533:Drivers/STM32F4xx_HAL_Driver/Inc/stm32f4xx_ll_tim.h **** #define LL_TIM_DIER_UIE                        TIM_DIER_UIE         /*!< Update interrupt enable */
 534:Drivers/STM32F4xx_HAL_Driver/Inc/stm32f4xx_ll_tim.h **** #define LL_TIM_DIER_CC1IE                      TIM_DIER_CC1IE       /*!< Capture/compare 1 interrup
 535:Drivers/STM32F4xx_HAL_Driver/Inc/stm32f4xx_ll_tim.h **** #define LL_TIM_DIER_CC2IE                      TIM_DIER_CC2IE       /*!< Capture/compare 2 interrup
 536:Drivers/STM32F4xx_HAL_Driver/Inc/stm32f4xx_ll_tim.h **** #define LL_TIM_DIER_CC3IE                      TIM_DIER_CC3IE       /*!< Capture/compare 3 interrup
 537:Drivers/STM32F4xx_HAL_Driver/Inc/stm32f4xx_ll_tim.h **** #define LL_TIM_DIER_CC4IE                      TIM_DIER_CC4IE       /*!< Capture/compare 4 interrup
 538:Drivers/STM32F4xx_HAL_Driver/Inc/stm32f4xx_ll_tim.h **** #define LL_TIM_DIER_COMIE                      TIM_DIER_COMIE       /*!< COM interrupt enable */
 539:Drivers/STM32F4xx_HAL_Driver/Inc/stm32f4xx_ll_tim.h **** #define LL_TIM_DIER_TIE                        TIM_DIER_TIE         /*!< Trigger interrupt enable *
 540:Drivers/STM32F4xx_HAL_Driver/Inc/stm32f4xx_ll_tim.h **** #define LL_TIM_DIER_BIE                        TIM_DIER_BIE         /*!< Break interrupt enable */
 541:Drivers/STM32F4xx_HAL_Driver/Inc/stm32f4xx_ll_tim.h **** /**
 542:Drivers/STM32F4xx_HAL_Driver/Inc/stm32f4xx_ll_tim.h ****   * @}
 543:Drivers/STM32F4xx_HAL_Driver/Inc/stm32f4xx_ll_tim.h ****   */
 544:Drivers/STM32F4xx_HAL_Driver/Inc/stm32f4xx_ll_tim.h **** 
 545:Drivers/STM32F4xx_HAL_Driver/Inc/stm32f4xx_ll_tim.h **** /** @defgroup TIM_LL_EC_UPDATESOURCE Update Source
 546:Drivers/STM32F4xx_HAL_Driver/Inc/stm32f4xx_ll_tim.h ****   * @{
 547:Drivers/STM32F4xx_HAL_Driver/Inc/stm32f4xx_ll_tim.h ****   */
 548:Drivers/STM32F4xx_HAL_Driver/Inc/stm32f4xx_ll_tim.h **** #define LL_TIM_UPDATESOURCE_REGULAR            0x00000000U          /*!< Counter overflow/underflow
 549:Drivers/STM32F4xx_HAL_Driver/Inc/stm32f4xx_ll_tim.h **** #define LL_TIM_UPDATESOURCE_COUNTER            TIM_CR1_URS          /*!< Only counter overflow/unde
 550:Drivers/STM32F4xx_HAL_Driver/Inc/stm32f4xx_ll_tim.h **** /**
 551:Drivers/STM32F4xx_HAL_Driver/Inc/stm32f4xx_ll_tim.h ****   * @}
 552:Drivers/STM32F4xx_HAL_Driver/Inc/stm32f4xx_ll_tim.h ****   */
 553:Drivers/STM32F4xx_HAL_Driver/Inc/stm32f4xx_ll_tim.h **** 
 554:Drivers/STM32F4xx_HAL_Driver/Inc/stm32f4xx_ll_tim.h **** /** @defgroup TIM_LL_EC_ONEPULSEMODE One Pulse Mode
 555:Drivers/STM32F4xx_HAL_Driver/Inc/stm32f4xx_ll_tim.h ****   * @{
 556:Drivers/STM32F4xx_HAL_Driver/Inc/stm32f4xx_ll_tim.h ****   */
 557:Drivers/STM32F4xx_HAL_Driver/Inc/stm32f4xx_ll_tim.h **** #define LL_TIM_ONEPULSEMODE_SINGLE             TIM_CR1_OPM          /*!< Counter stops counting at 
 558:Drivers/STM32F4xx_HAL_Driver/Inc/stm32f4xx_ll_tim.h **** #define LL_TIM_ONEPULSEMODE_REPETITIVE         0x00000000U          /*!< Counter is not stopped at 
 559:Drivers/STM32F4xx_HAL_Driver/Inc/stm32f4xx_ll_tim.h **** /**
 560:Drivers/STM32F4xx_HAL_Driver/Inc/stm32f4xx_ll_tim.h ****   * @}
 561:Drivers/STM32F4xx_HAL_Driver/Inc/stm32f4xx_ll_tim.h ****   */
 562:Drivers/STM32F4xx_HAL_Driver/Inc/stm32f4xx_ll_tim.h **** 
 563:Drivers/STM32F4xx_HAL_Driver/Inc/stm32f4xx_ll_tim.h **** /** @defgroup TIM_LL_EC_COUNTERMODE Counter Mode
 564:Drivers/STM32F4xx_HAL_Driver/Inc/stm32f4xx_ll_tim.h ****   * @{
 565:Drivers/STM32F4xx_HAL_Driver/Inc/stm32f4xx_ll_tim.h ****   */
 566:Drivers/STM32F4xx_HAL_Driver/Inc/stm32f4xx_ll_tim.h **** #define LL_TIM_COUNTERMODE_UP                  0x00000000U          /*!<Counter used as upcounter *
 567:Drivers/STM32F4xx_HAL_Driver/Inc/stm32f4xx_ll_tim.h **** #define LL_TIM_COUNTERMODE_DOWN                TIM_CR1_DIR          /*!< Counter used as downcounte
 568:Drivers/STM32F4xx_HAL_Driver/Inc/stm32f4xx_ll_tim.h **** #define LL_TIM_COUNTERMODE_CENTER_DOWN         TIM_CR1_CMS_0        /*!< The counter counts up and 
 569:Drivers/STM32F4xx_HAL_Driver/Inc/stm32f4xx_ll_tim.h **** #define LL_TIM_COUNTERMODE_CENTER_UP           TIM_CR1_CMS_1        /*!<The counter counts up and d
 570:Drivers/STM32F4xx_HAL_Driver/Inc/stm32f4xx_ll_tim.h **** #define LL_TIM_COUNTERMODE_CENTER_UP_DOWN      TIM_CR1_CMS          /*!< The counter counts up and 
 571:Drivers/STM32F4xx_HAL_Driver/Inc/stm32f4xx_ll_tim.h **** /**
 572:Drivers/STM32F4xx_HAL_Driver/Inc/stm32f4xx_ll_tim.h ****   * @}
 573:Drivers/STM32F4xx_HAL_Driver/Inc/stm32f4xx_ll_tim.h ****   */
ARM GAS  /tmp/ccdh1ORM.s 			page 20


 574:Drivers/STM32F4xx_HAL_Driver/Inc/stm32f4xx_ll_tim.h **** 
 575:Drivers/STM32F4xx_HAL_Driver/Inc/stm32f4xx_ll_tim.h **** /** @defgroup TIM_LL_EC_CLOCKDIVISION Clock Division
 576:Drivers/STM32F4xx_HAL_Driver/Inc/stm32f4xx_ll_tim.h ****   * @{
 577:Drivers/STM32F4xx_HAL_Driver/Inc/stm32f4xx_ll_tim.h ****   */
 578:Drivers/STM32F4xx_HAL_Driver/Inc/stm32f4xx_ll_tim.h **** #define LL_TIM_CLOCKDIVISION_DIV1              0x00000000U          /*!< tDTS=tCK_INT */
 579:Drivers/STM32F4xx_HAL_Driver/Inc/stm32f4xx_ll_tim.h **** #define LL_TIM_CLOCKDIVISION_DIV2              TIM_CR1_CKD_0        /*!< tDTS=2*tCK_INT */
 580:Drivers/STM32F4xx_HAL_Driver/Inc/stm32f4xx_ll_tim.h **** #define LL_TIM_CLOCKDIVISION_DIV4              TIM_CR1_CKD_1        /*!< tDTS=4*tCK_INT */
 581:Drivers/STM32F4xx_HAL_Driver/Inc/stm32f4xx_ll_tim.h **** /**
 582:Drivers/STM32F4xx_HAL_Driver/Inc/stm32f4xx_ll_tim.h ****   * @}
 583:Drivers/STM32F4xx_HAL_Driver/Inc/stm32f4xx_ll_tim.h ****   */
 584:Drivers/STM32F4xx_HAL_Driver/Inc/stm32f4xx_ll_tim.h **** 
 585:Drivers/STM32F4xx_HAL_Driver/Inc/stm32f4xx_ll_tim.h **** /** @defgroup TIM_LL_EC_COUNTERDIRECTION Counter Direction
 586:Drivers/STM32F4xx_HAL_Driver/Inc/stm32f4xx_ll_tim.h ****   * @{
 587:Drivers/STM32F4xx_HAL_Driver/Inc/stm32f4xx_ll_tim.h ****   */
 588:Drivers/STM32F4xx_HAL_Driver/Inc/stm32f4xx_ll_tim.h **** #define LL_TIM_COUNTERDIRECTION_UP             0x00000000U          /*!< Timer counter counts up */
 589:Drivers/STM32F4xx_HAL_Driver/Inc/stm32f4xx_ll_tim.h **** #define LL_TIM_COUNTERDIRECTION_DOWN           TIM_CR1_DIR          /*!< Timer counter counts down 
 590:Drivers/STM32F4xx_HAL_Driver/Inc/stm32f4xx_ll_tim.h **** /**
 591:Drivers/STM32F4xx_HAL_Driver/Inc/stm32f4xx_ll_tim.h ****   * @}
 592:Drivers/STM32F4xx_HAL_Driver/Inc/stm32f4xx_ll_tim.h ****   */
 593:Drivers/STM32F4xx_HAL_Driver/Inc/stm32f4xx_ll_tim.h **** 
 594:Drivers/STM32F4xx_HAL_Driver/Inc/stm32f4xx_ll_tim.h **** /** @defgroup TIM_LL_EC_CCUPDATESOURCE Capture Compare  Update Source
 595:Drivers/STM32F4xx_HAL_Driver/Inc/stm32f4xx_ll_tim.h ****   * @{
 596:Drivers/STM32F4xx_HAL_Driver/Inc/stm32f4xx_ll_tim.h ****   */
 597:Drivers/STM32F4xx_HAL_Driver/Inc/stm32f4xx_ll_tim.h **** #define LL_TIM_CCUPDATESOURCE_COMG_ONLY        0x00000000U          /*!< Capture/compare control bi
 598:Drivers/STM32F4xx_HAL_Driver/Inc/stm32f4xx_ll_tim.h **** #define LL_TIM_CCUPDATESOURCE_COMG_AND_TRGI    TIM_CR2_CCUS         /*!< Capture/compare control bi
 599:Drivers/STM32F4xx_HAL_Driver/Inc/stm32f4xx_ll_tim.h **** /**
 600:Drivers/STM32F4xx_HAL_Driver/Inc/stm32f4xx_ll_tim.h ****   * @}
 601:Drivers/STM32F4xx_HAL_Driver/Inc/stm32f4xx_ll_tim.h ****   */
 602:Drivers/STM32F4xx_HAL_Driver/Inc/stm32f4xx_ll_tim.h **** 
 603:Drivers/STM32F4xx_HAL_Driver/Inc/stm32f4xx_ll_tim.h **** /** @defgroup TIM_LL_EC_CCDMAREQUEST Capture Compare DMA Request
 604:Drivers/STM32F4xx_HAL_Driver/Inc/stm32f4xx_ll_tim.h ****   * @{
 605:Drivers/STM32F4xx_HAL_Driver/Inc/stm32f4xx_ll_tim.h ****   */
 606:Drivers/STM32F4xx_HAL_Driver/Inc/stm32f4xx_ll_tim.h **** #define LL_TIM_CCDMAREQUEST_CC                 0x00000000U          /*!< CCx DMA request sent when 
 607:Drivers/STM32F4xx_HAL_Driver/Inc/stm32f4xx_ll_tim.h **** #define LL_TIM_CCDMAREQUEST_UPDATE             TIM_CR2_CCDS         /*!< CCx DMA requests sent when
 608:Drivers/STM32F4xx_HAL_Driver/Inc/stm32f4xx_ll_tim.h **** /**
 609:Drivers/STM32F4xx_HAL_Driver/Inc/stm32f4xx_ll_tim.h ****   * @}
 610:Drivers/STM32F4xx_HAL_Driver/Inc/stm32f4xx_ll_tim.h ****   */
 611:Drivers/STM32F4xx_HAL_Driver/Inc/stm32f4xx_ll_tim.h **** 
 612:Drivers/STM32F4xx_HAL_Driver/Inc/stm32f4xx_ll_tim.h **** /** @defgroup TIM_LL_EC_LOCKLEVEL Lock Level
 613:Drivers/STM32F4xx_HAL_Driver/Inc/stm32f4xx_ll_tim.h ****   * @{
 614:Drivers/STM32F4xx_HAL_Driver/Inc/stm32f4xx_ll_tim.h ****   */
 615:Drivers/STM32F4xx_HAL_Driver/Inc/stm32f4xx_ll_tim.h **** #define LL_TIM_LOCKLEVEL_OFF                   0x00000000U          /*!< LOCK OFF - No bit is write
 616:Drivers/STM32F4xx_HAL_Driver/Inc/stm32f4xx_ll_tim.h **** #define LL_TIM_LOCKLEVEL_1                     TIM_BDTR_LOCK_0      /*!< LOCK Level 1 */
 617:Drivers/STM32F4xx_HAL_Driver/Inc/stm32f4xx_ll_tim.h **** #define LL_TIM_LOCKLEVEL_2                     TIM_BDTR_LOCK_1      /*!< LOCK Level 2 */
 618:Drivers/STM32F4xx_HAL_Driver/Inc/stm32f4xx_ll_tim.h **** #define LL_TIM_LOCKLEVEL_3                     TIM_BDTR_LOCK        /*!< LOCK Level 3 */
 619:Drivers/STM32F4xx_HAL_Driver/Inc/stm32f4xx_ll_tim.h **** /**
 620:Drivers/STM32F4xx_HAL_Driver/Inc/stm32f4xx_ll_tim.h ****   * @}
 621:Drivers/STM32F4xx_HAL_Driver/Inc/stm32f4xx_ll_tim.h ****   */
 622:Drivers/STM32F4xx_HAL_Driver/Inc/stm32f4xx_ll_tim.h **** 
 623:Drivers/STM32F4xx_HAL_Driver/Inc/stm32f4xx_ll_tim.h **** /** @defgroup TIM_LL_EC_CHANNEL Channel
 624:Drivers/STM32F4xx_HAL_Driver/Inc/stm32f4xx_ll_tim.h ****   * @{
 625:Drivers/STM32F4xx_HAL_Driver/Inc/stm32f4xx_ll_tim.h ****   */
 626:Drivers/STM32F4xx_HAL_Driver/Inc/stm32f4xx_ll_tim.h **** #define LL_TIM_CHANNEL_CH1                     TIM_CCER_CC1E     /*!< Timer input/output channel 1 
 627:Drivers/STM32F4xx_HAL_Driver/Inc/stm32f4xx_ll_tim.h **** #define LL_TIM_CHANNEL_CH1N                    TIM_CCER_CC1NE    /*!< Timer complementary output ch
 628:Drivers/STM32F4xx_HAL_Driver/Inc/stm32f4xx_ll_tim.h **** #define LL_TIM_CHANNEL_CH2                     TIM_CCER_CC2E     /*!< Timer input/output channel 2 
 629:Drivers/STM32F4xx_HAL_Driver/Inc/stm32f4xx_ll_tim.h **** #define LL_TIM_CHANNEL_CH2N                    TIM_CCER_CC2NE    /*!< Timer complementary output ch
 630:Drivers/STM32F4xx_HAL_Driver/Inc/stm32f4xx_ll_tim.h **** #define LL_TIM_CHANNEL_CH3                     TIM_CCER_CC3E     /*!< Timer input/output channel 3 
ARM GAS  /tmp/ccdh1ORM.s 			page 21


 631:Drivers/STM32F4xx_HAL_Driver/Inc/stm32f4xx_ll_tim.h **** #define LL_TIM_CHANNEL_CH3N                    TIM_CCER_CC3NE    /*!< Timer complementary output ch
 632:Drivers/STM32F4xx_HAL_Driver/Inc/stm32f4xx_ll_tim.h **** #define LL_TIM_CHANNEL_CH4                     TIM_CCER_CC4E     /*!< Timer input/output channel 4 
 633:Drivers/STM32F4xx_HAL_Driver/Inc/stm32f4xx_ll_tim.h **** /**
 634:Drivers/STM32F4xx_HAL_Driver/Inc/stm32f4xx_ll_tim.h ****   * @}
 635:Drivers/STM32F4xx_HAL_Driver/Inc/stm32f4xx_ll_tim.h ****   */
 636:Drivers/STM32F4xx_HAL_Driver/Inc/stm32f4xx_ll_tim.h **** 
 637:Drivers/STM32F4xx_HAL_Driver/Inc/stm32f4xx_ll_tim.h **** #if defined(USE_FULL_LL_DRIVER)
 638:Drivers/STM32F4xx_HAL_Driver/Inc/stm32f4xx_ll_tim.h **** /** @defgroup TIM_LL_EC_OCSTATE Output Configuration State
 639:Drivers/STM32F4xx_HAL_Driver/Inc/stm32f4xx_ll_tim.h ****   * @{
 640:Drivers/STM32F4xx_HAL_Driver/Inc/stm32f4xx_ll_tim.h ****   */
 641:Drivers/STM32F4xx_HAL_Driver/Inc/stm32f4xx_ll_tim.h **** #define LL_TIM_OCSTATE_DISABLE                 0x00000000U             /*!< OCx is not active */
 642:Drivers/STM32F4xx_HAL_Driver/Inc/stm32f4xx_ll_tim.h **** #define LL_TIM_OCSTATE_ENABLE                  TIM_CCER_CC1E           /*!< OCx signal is output on
 643:Drivers/STM32F4xx_HAL_Driver/Inc/stm32f4xx_ll_tim.h **** /**
 644:Drivers/STM32F4xx_HAL_Driver/Inc/stm32f4xx_ll_tim.h ****   * @}
 645:Drivers/STM32F4xx_HAL_Driver/Inc/stm32f4xx_ll_tim.h ****   */
 646:Drivers/STM32F4xx_HAL_Driver/Inc/stm32f4xx_ll_tim.h **** #endif /* USE_FULL_LL_DRIVER */
 647:Drivers/STM32F4xx_HAL_Driver/Inc/stm32f4xx_ll_tim.h **** 
 648:Drivers/STM32F4xx_HAL_Driver/Inc/stm32f4xx_ll_tim.h **** /** @defgroup TIM_LL_EC_OCMODE Output Configuration Mode
 649:Drivers/STM32F4xx_HAL_Driver/Inc/stm32f4xx_ll_tim.h ****   * @{
 650:Drivers/STM32F4xx_HAL_Driver/Inc/stm32f4xx_ll_tim.h ****   */
 651:Drivers/STM32F4xx_HAL_Driver/Inc/stm32f4xx_ll_tim.h **** #define LL_TIM_OCMODE_FROZEN                   0x00000000U                                         
 652:Drivers/STM32F4xx_HAL_Driver/Inc/stm32f4xx_ll_tim.h **** #define LL_TIM_OCMODE_ACTIVE                   TIM_CCMR1_OC1M_0                                    
 653:Drivers/STM32F4xx_HAL_Driver/Inc/stm32f4xx_ll_tim.h **** #define LL_TIM_OCMODE_INACTIVE                 TIM_CCMR1_OC1M_1                                    
 654:Drivers/STM32F4xx_HAL_Driver/Inc/stm32f4xx_ll_tim.h **** #define LL_TIM_OCMODE_TOGGLE                   (TIM_CCMR1_OC1M_1 | TIM_CCMR1_OC1M_0)               
 655:Drivers/STM32F4xx_HAL_Driver/Inc/stm32f4xx_ll_tim.h **** #define LL_TIM_OCMODE_FORCED_INACTIVE          TIM_CCMR1_OC1M_2                                    
 656:Drivers/STM32F4xx_HAL_Driver/Inc/stm32f4xx_ll_tim.h **** #define LL_TIM_OCMODE_FORCED_ACTIVE            (TIM_CCMR1_OC1M_2 | TIM_CCMR1_OC1M_0)               
 657:Drivers/STM32F4xx_HAL_Driver/Inc/stm32f4xx_ll_tim.h **** #define LL_TIM_OCMODE_PWM1                     (TIM_CCMR1_OC1M_2 | TIM_CCMR1_OC1M_1)               
 658:Drivers/STM32F4xx_HAL_Driver/Inc/stm32f4xx_ll_tim.h **** #define LL_TIM_OCMODE_PWM2                     (TIM_CCMR1_OC1M_2 | TIM_CCMR1_OC1M_1 | TIM_CCMR1_OC1
 659:Drivers/STM32F4xx_HAL_Driver/Inc/stm32f4xx_ll_tim.h **** /**
 660:Drivers/STM32F4xx_HAL_Driver/Inc/stm32f4xx_ll_tim.h ****   * @}
 661:Drivers/STM32F4xx_HAL_Driver/Inc/stm32f4xx_ll_tim.h ****   */
 662:Drivers/STM32F4xx_HAL_Driver/Inc/stm32f4xx_ll_tim.h **** 
 663:Drivers/STM32F4xx_HAL_Driver/Inc/stm32f4xx_ll_tim.h **** /** @defgroup TIM_LL_EC_OCPOLARITY Output Configuration Polarity
 664:Drivers/STM32F4xx_HAL_Driver/Inc/stm32f4xx_ll_tim.h ****   * @{
 665:Drivers/STM32F4xx_HAL_Driver/Inc/stm32f4xx_ll_tim.h ****   */
 666:Drivers/STM32F4xx_HAL_Driver/Inc/stm32f4xx_ll_tim.h **** #define LL_TIM_OCPOLARITY_HIGH                 0x00000000U                 /*!< OCxactive high*/
 667:Drivers/STM32F4xx_HAL_Driver/Inc/stm32f4xx_ll_tim.h **** #define LL_TIM_OCPOLARITY_LOW                  TIM_CCER_CC1P               /*!< OCxactive low*/
 668:Drivers/STM32F4xx_HAL_Driver/Inc/stm32f4xx_ll_tim.h **** /**
 669:Drivers/STM32F4xx_HAL_Driver/Inc/stm32f4xx_ll_tim.h ****   * @}
 670:Drivers/STM32F4xx_HAL_Driver/Inc/stm32f4xx_ll_tim.h ****   */
 671:Drivers/STM32F4xx_HAL_Driver/Inc/stm32f4xx_ll_tim.h **** 
 672:Drivers/STM32F4xx_HAL_Driver/Inc/stm32f4xx_ll_tim.h **** /** @defgroup TIM_LL_EC_OCIDLESTATE Output Configuration Idle State
 673:Drivers/STM32F4xx_HAL_Driver/Inc/stm32f4xx_ll_tim.h ****   * @{
 674:Drivers/STM32F4xx_HAL_Driver/Inc/stm32f4xx_ll_tim.h ****   */
 675:Drivers/STM32F4xx_HAL_Driver/Inc/stm32f4xx_ll_tim.h **** #define LL_TIM_OCIDLESTATE_LOW                 0x00000000U             /*!<OCx=0 (after a dead-time
 676:Drivers/STM32F4xx_HAL_Driver/Inc/stm32f4xx_ll_tim.h **** #define LL_TIM_OCIDLESTATE_HIGH                TIM_CR2_OIS1            /*!<OCx=1 (after a dead-time
 677:Drivers/STM32F4xx_HAL_Driver/Inc/stm32f4xx_ll_tim.h **** /**
 678:Drivers/STM32F4xx_HAL_Driver/Inc/stm32f4xx_ll_tim.h ****   * @}
 679:Drivers/STM32F4xx_HAL_Driver/Inc/stm32f4xx_ll_tim.h ****   */
 680:Drivers/STM32F4xx_HAL_Driver/Inc/stm32f4xx_ll_tim.h **** 
 681:Drivers/STM32F4xx_HAL_Driver/Inc/stm32f4xx_ll_tim.h **** 
 682:Drivers/STM32F4xx_HAL_Driver/Inc/stm32f4xx_ll_tim.h **** /** @defgroup TIM_LL_EC_ACTIVEINPUT Active Input Selection
 683:Drivers/STM32F4xx_HAL_Driver/Inc/stm32f4xx_ll_tim.h ****   * @{
 684:Drivers/STM32F4xx_HAL_Driver/Inc/stm32f4xx_ll_tim.h ****   */
 685:Drivers/STM32F4xx_HAL_Driver/Inc/stm32f4xx_ll_tim.h **** #define LL_TIM_ACTIVEINPUT_DIRECTTI            (TIM_CCMR1_CC1S_0 << 16U) /*!< ICx is mapped on TIx 
 686:Drivers/STM32F4xx_HAL_Driver/Inc/stm32f4xx_ll_tim.h **** #define LL_TIM_ACTIVEINPUT_INDIRECTTI          (TIM_CCMR1_CC1S_1 << 16U) /*!< ICx is mapped on TIy 
 687:Drivers/STM32F4xx_HAL_Driver/Inc/stm32f4xx_ll_tim.h **** #define LL_TIM_ACTIVEINPUT_TRC                 (TIM_CCMR1_CC1S << 16U)   /*!< ICx is mapped on TRC 
ARM GAS  /tmp/ccdh1ORM.s 			page 22


 688:Drivers/STM32F4xx_HAL_Driver/Inc/stm32f4xx_ll_tim.h **** /**
 689:Drivers/STM32F4xx_HAL_Driver/Inc/stm32f4xx_ll_tim.h ****   * @}
 690:Drivers/STM32F4xx_HAL_Driver/Inc/stm32f4xx_ll_tim.h ****   */
 691:Drivers/STM32F4xx_HAL_Driver/Inc/stm32f4xx_ll_tim.h **** 
 692:Drivers/STM32F4xx_HAL_Driver/Inc/stm32f4xx_ll_tim.h **** /** @defgroup TIM_LL_EC_ICPSC Input Configuration Prescaler
 693:Drivers/STM32F4xx_HAL_Driver/Inc/stm32f4xx_ll_tim.h ****   * @{
 694:Drivers/STM32F4xx_HAL_Driver/Inc/stm32f4xx_ll_tim.h ****   */
 695:Drivers/STM32F4xx_HAL_Driver/Inc/stm32f4xx_ll_tim.h **** #define LL_TIM_ICPSC_DIV1                      0x00000000U                    /*!< No prescaler, ca
 696:Drivers/STM32F4xx_HAL_Driver/Inc/stm32f4xx_ll_tim.h **** #define LL_TIM_ICPSC_DIV2                      (TIM_CCMR1_IC1PSC_0 << 16U)    /*!< Capture is done 
 697:Drivers/STM32F4xx_HAL_Driver/Inc/stm32f4xx_ll_tim.h **** #define LL_TIM_ICPSC_DIV4                      (TIM_CCMR1_IC1PSC_1 << 16U)    /*!< Capture is done 
 698:Drivers/STM32F4xx_HAL_Driver/Inc/stm32f4xx_ll_tim.h **** #define LL_TIM_ICPSC_DIV8                      (TIM_CCMR1_IC1PSC << 16U)      /*!< Capture is done 
 699:Drivers/STM32F4xx_HAL_Driver/Inc/stm32f4xx_ll_tim.h **** /**
 700:Drivers/STM32F4xx_HAL_Driver/Inc/stm32f4xx_ll_tim.h ****   * @}
 701:Drivers/STM32F4xx_HAL_Driver/Inc/stm32f4xx_ll_tim.h ****   */
 702:Drivers/STM32F4xx_HAL_Driver/Inc/stm32f4xx_ll_tim.h **** 
 703:Drivers/STM32F4xx_HAL_Driver/Inc/stm32f4xx_ll_tim.h **** /** @defgroup TIM_LL_EC_IC_FILTER Input Configuration Filter
 704:Drivers/STM32F4xx_HAL_Driver/Inc/stm32f4xx_ll_tim.h ****   * @{
 705:Drivers/STM32F4xx_HAL_Driver/Inc/stm32f4xx_ll_tim.h ****   */
 706:Drivers/STM32F4xx_HAL_Driver/Inc/stm32f4xx_ll_tim.h **** #define LL_TIM_IC_FILTER_FDIV1                 0x00000000U                                         
 707:Drivers/STM32F4xx_HAL_Driver/Inc/stm32f4xx_ll_tim.h **** #define LL_TIM_IC_FILTER_FDIV1_N2              (TIM_CCMR1_IC1F_0 << 16U)                           
 708:Drivers/STM32F4xx_HAL_Driver/Inc/stm32f4xx_ll_tim.h **** #define LL_TIM_IC_FILTER_FDIV1_N4              (TIM_CCMR1_IC1F_1 << 16U)                           
 709:Drivers/STM32F4xx_HAL_Driver/Inc/stm32f4xx_ll_tim.h **** #define LL_TIM_IC_FILTER_FDIV1_N8              ((TIM_CCMR1_IC1F_1 | TIM_CCMR1_IC1F_0) << 16U)      
 710:Drivers/STM32F4xx_HAL_Driver/Inc/stm32f4xx_ll_tim.h **** #define LL_TIM_IC_FILTER_FDIV2_N6              (TIM_CCMR1_IC1F_2 << 16U)                           
 711:Drivers/STM32F4xx_HAL_Driver/Inc/stm32f4xx_ll_tim.h **** #define LL_TIM_IC_FILTER_FDIV2_N8              ((TIM_CCMR1_IC1F_2 | TIM_CCMR1_IC1F_0) << 16U)      
 712:Drivers/STM32F4xx_HAL_Driver/Inc/stm32f4xx_ll_tim.h **** #define LL_TIM_IC_FILTER_FDIV4_N6              ((TIM_CCMR1_IC1F_2 | TIM_CCMR1_IC1F_1) << 16U)      
 713:Drivers/STM32F4xx_HAL_Driver/Inc/stm32f4xx_ll_tim.h **** #define LL_TIM_IC_FILTER_FDIV4_N8              ((TIM_CCMR1_IC1F_2 | TIM_CCMR1_IC1F_1 | TIM_CCMR1_IC
 714:Drivers/STM32F4xx_HAL_Driver/Inc/stm32f4xx_ll_tim.h **** #define LL_TIM_IC_FILTER_FDIV8_N6              (TIM_CCMR1_IC1F_3 << 16U)                           
 715:Drivers/STM32F4xx_HAL_Driver/Inc/stm32f4xx_ll_tim.h **** #define LL_TIM_IC_FILTER_FDIV8_N8              ((TIM_CCMR1_IC1F_3 | TIM_CCMR1_IC1F_0) << 16U)      
 716:Drivers/STM32F4xx_HAL_Driver/Inc/stm32f4xx_ll_tim.h **** #define LL_TIM_IC_FILTER_FDIV16_N5             ((TIM_CCMR1_IC1F_3 | TIM_CCMR1_IC1F_1) << 16U)      
 717:Drivers/STM32F4xx_HAL_Driver/Inc/stm32f4xx_ll_tim.h **** #define LL_TIM_IC_FILTER_FDIV16_N6             ((TIM_CCMR1_IC1F_3 | TIM_CCMR1_IC1F_1 | TIM_CCMR1_IC
 718:Drivers/STM32F4xx_HAL_Driver/Inc/stm32f4xx_ll_tim.h **** #define LL_TIM_IC_FILTER_FDIV16_N8             ((TIM_CCMR1_IC1F_3 | TIM_CCMR1_IC1F_2) << 16U)      
 719:Drivers/STM32F4xx_HAL_Driver/Inc/stm32f4xx_ll_tim.h **** #define LL_TIM_IC_FILTER_FDIV32_N5             ((TIM_CCMR1_IC1F_3 | TIM_CCMR1_IC1F_2 | TIM_CCMR1_IC
 720:Drivers/STM32F4xx_HAL_Driver/Inc/stm32f4xx_ll_tim.h **** #define LL_TIM_IC_FILTER_FDIV32_N6             ((TIM_CCMR1_IC1F_3 | TIM_CCMR1_IC1F_2 | TIM_CCMR1_IC
 721:Drivers/STM32F4xx_HAL_Driver/Inc/stm32f4xx_ll_tim.h **** #define LL_TIM_IC_FILTER_FDIV32_N8             (TIM_CCMR1_IC1F << 16U)                             
 722:Drivers/STM32F4xx_HAL_Driver/Inc/stm32f4xx_ll_tim.h **** /**
 723:Drivers/STM32F4xx_HAL_Driver/Inc/stm32f4xx_ll_tim.h ****   * @}
 724:Drivers/STM32F4xx_HAL_Driver/Inc/stm32f4xx_ll_tim.h ****   */
 725:Drivers/STM32F4xx_HAL_Driver/Inc/stm32f4xx_ll_tim.h **** 
 726:Drivers/STM32F4xx_HAL_Driver/Inc/stm32f4xx_ll_tim.h **** /** @defgroup TIM_LL_EC_IC_POLARITY Input Configuration Polarity
 727:Drivers/STM32F4xx_HAL_Driver/Inc/stm32f4xx_ll_tim.h ****   * @{
 728:Drivers/STM32F4xx_HAL_Driver/Inc/stm32f4xx_ll_tim.h ****   */
 729:Drivers/STM32F4xx_HAL_Driver/Inc/stm32f4xx_ll_tim.h **** #define LL_TIM_IC_POLARITY_RISING              0x00000000U                      /*!< The circuit is
 730:Drivers/STM32F4xx_HAL_Driver/Inc/stm32f4xx_ll_tim.h **** #define LL_TIM_IC_POLARITY_FALLING             TIM_CCER_CC1P                    /*!< The circuit is
 731:Drivers/STM32F4xx_HAL_Driver/Inc/stm32f4xx_ll_tim.h **** #define LL_TIM_IC_POLARITY_BOTHEDGE            (TIM_CCER_CC1P | TIM_CCER_CC1NP) /*!< The circuit is
 732:Drivers/STM32F4xx_HAL_Driver/Inc/stm32f4xx_ll_tim.h **** /**
 733:Drivers/STM32F4xx_HAL_Driver/Inc/stm32f4xx_ll_tim.h ****   * @}
 734:Drivers/STM32F4xx_HAL_Driver/Inc/stm32f4xx_ll_tim.h ****   */
 735:Drivers/STM32F4xx_HAL_Driver/Inc/stm32f4xx_ll_tim.h **** 
 736:Drivers/STM32F4xx_HAL_Driver/Inc/stm32f4xx_ll_tim.h **** /** @defgroup TIM_LL_EC_CLOCKSOURCE Clock Source
 737:Drivers/STM32F4xx_HAL_Driver/Inc/stm32f4xx_ll_tim.h ****   * @{
 738:Drivers/STM32F4xx_HAL_Driver/Inc/stm32f4xx_ll_tim.h ****   */
 739:Drivers/STM32F4xx_HAL_Driver/Inc/stm32f4xx_ll_tim.h **** #define LL_TIM_CLOCKSOURCE_INTERNAL            0x00000000U                                         
 740:Drivers/STM32F4xx_HAL_Driver/Inc/stm32f4xx_ll_tim.h **** #define LL_TIM_CLOCKSOURCE_EXT_MODE1           (TIM_SMCR_SMS_2 | TIM_SMCR_SMS_1 | TIM_SMCR_SMS_0)  
 741:Drivers/STM32F4xx_HAL_Driver/Inc/stm32f4xx_ll_tim.h **** #define LL_TIM_CLOCKSOURCE_EXT_MODE2           TIM_SMCR_ECE                                        
 742:Drivers/STM32F4xx_HAL_Driver/Inc/stm32f4xx_ll_tim.h **** /**
 743:Drivers/STM32F4xx_HAL_Driver/Inc/stm32f4xx_ll_tim.h ****   * @}
 744:Drivers/STM32F4xx_HAL_Driver/Inc/stm32f4xx_ll_tim.h ****   */
ARM GAS  /tmp/ccdh1ORM.s 			page 23


 745:Drivers/STM32F4xx_HAL_Driver/Inc/stm32f4xx_ll_tim.h **** 
 746:Drivers/STM32F4xx_HAL_Driver/Inc/stm32f4xx_ll_tim.h **** /** @defgroup TIM_LL_EC_ENCODERMODE Encoder Mode
 747:Drivers/STM32F4xx_HAL_Driver/Inc/stm32f4xx_ll_tim.h ****   * @{
 748:Drivers/STM32F4xx_HAL_Driver/Inc/stm32f4xx_ll_tim.h ****   */
 749:Drivers/STM32F4xx_HAL_Driver/Inc/stm32f4xx_ll_tim.h **** #define LL_TIM_ENCODERMODE_X2_TI1                     TIM_SMCR_SMS_0                               
 750:Drivers/STM32F4xx_HAL_Driver/Inc/stm32f4xx_ll_tim.h **** #define LL_TIM_ENCODERMODE_X2_TI2                     TIM_SMCR_SMS_1                               
 751:Drivers/STM32F4xx_HAL_Driver/Inc/stm32f4xx_ll_tim.h **** #define LL_TIM_ENCODERMODE_X4_TI12                   (TIM_SMCR_SMS_1 | TIM_SMCR_SMS_0)             
 752:Drivers/STM32F4xx_HAL_Driver/Inc/stm32f4xx_ll_tim.h **** /**
 753:Drivers/STM32F4xx_HAL_Driver/Inc/stm32f4xx_ll_tim.h ****   * @}
 754:Drivers/STM32F4xx_HAL_Driver/Inc/stm32f4xx_ll_tim.h ****   */
 755:Drivers/STM32F4xx_HAL_Driver/Inc/stm32f4xx_ll_tim.h **** 
 756:Drivers/STM32F4xx_HAL_Driver/Inc/stm32f4xx_ll_tim.h **** /** @defgroup TIM_LL_EC_TRGO Trigger Output
 757:Drivers/STM32F4xx_HAL_Driver/Inc/stm32f4xx_ll_tim.h ****   * @{
 758:Drivers/STM32F4xx_HAL_Driver/Inc/stm32f4xx_ll_tim.h ****   */
 759:Drivers/STM32F4xx_HAL_Driver/Inc/stm32f4xx_ll_tim.h **** #define LL_TIM_TRGO_RESET                      0x00000000U                                     /*!<
 760:Drivers/STM32F4xx_HAL_Driver/Inc/stm32f4xx_ll_tim.h **** #define LL_TIM_TRGO_ENABLE                     TIM_CR2_MMS_0                                   /*!<
 761:Drivers/STM32F4xx_HAL_Driver/Inc/stm32f4xx_ll_tim.h **** #define LL_TIM_TRGO_UPDATE                     TIM_CR2_MMS_1                                   /*!<
 762:Drivers/STM32F4xx_HAL_Driver/Inc/stm32f4xx_ll_tim.h **** #define LL_TIM_TRGO_CC1IF                      (TIM_CR2_MMS_1 | TIM_CR2_MMS_0)                 /*!<
 763:Drivers/STM32F4xx_HAL_Driver/Inc/stm32f4xx_ll_tim.h **** #define LL_TIM_TRGO_OC1REF                     TIM_CR2_MMS_2                                   /*!<
 764:Drivers/STM32F4xx_HAL_Driver/Inc/stm32f4xx_ll_tim.h **** #define LL_TIM_TRGO_OC2REF                     (TIM_CR2_MMS_2 | TIM_CR2_MMS_0)                 /*!<
 765:Drivers/STM32F4xx_HAL_Driver/Inc/stm32f4xx_ll_tim.h **** #define LL_TIM_TRGO_OC3REF                     (TIM_CR2_MMS_2 | TIM_CR2_MMS_1)                 /*!<
 766:Drivers/STM32F4xx_HAL_Driver/Inc/stm32f4xx_ll_tim.h **** #define LL_TIM_TRGO_OC4REF                     (TIM_CR2_MMS_2 | TIM_CR2_MMS_1 | TIM_CR2_MMS_0) /*!<
 767:Drivers/STM32F4xx_HAL_Driver/Inc/stm32f4xx_ll_tim.h **** /**
 768:Drivers/STM32F4xx_HAL_Driver/Inc/stm32f4xx_ll_tim.h ****   * @}
 769:Drivers/STM32F4xx_HAL_Driver/Inc/stm32f4xx_ll_tim.h ****   */
 770:Drivers/STM32F4xx_HAL_Driver/Inc/stm32f4xx_ll_tim.h **** 
 771:Drivers/STM32F4xx_HAL_Driver/Inc/stm32f4xx_ll_tim.h **** 
 772:Drivers/STM32F4xx_HAL_Driver/Inc/stm32f4xx_ll_tim.h **** /** @defgroup TIM_LL_EC_SLAVEMODE Slave Mode
 773:Drivers/STM32F4xx_HAL_Driver/Inc/stm32f4xx_ll_tim.h ****   * @{
 774:Drivers/STM32F4xx_HAL_Driver/Inc/stm32f4xx_ll_tim.h ****   */
 775:Drivers/STM32F4xx_HAL_Driver/Inc/stm32f4xx_ll_tim.h **** #define LL_TIM_SLAVEMODE_DISABLED              0x00000000U                         /*!< Slave mode 
 776:Drivers/STM32F4xx_HAL_Driver/Inc/stm32f4xx_ll_tim.h **** #define LL_TIM_SLAVEMODE_RESET                 TIM_SMCR_SMS_2                      /*!< Reset Mode 
 777:Drivers/STM32F4xx_HAL_Driver/Inc/stm32f4xx_ll_tim.h **** #define LL_TIM_SLAVEMODE_GATED                 (TIM_SMCR_SMS_2 | TIM_SMCR_SMS_0)   /*!< Gated Mode 
 778:Drivers/STM32F4xx_HAL_Driver/Inc/stm32f4xx_ll_tim.h **** #define LL_TIM_SLAVEMODE_TRIGGER               (TIM_SMCR_SMS_2 | TIM_SMCR_SMS_1)   /*!< Trigger Mod
 779:Drivers/STM32F4xx_HAL_Driver/Inc/stm32f4xx_ll_tim.h **** /**
 780:Drivers/STM32F4xx_HAL_Driver/Inc/stm32f4xx_ll_tim.h ****   * @}
 781:Drivers/STM32F4xx_HAL_Driver/Inc/stm32f4xx_ll_tim.h ****   */
 782:Drivers/STM32F4xx_HAL_Driver/Inc/stm32f4xx_ll_tim.h **** 
 783:Drivers/STM32F4xx_HAL_Driver/Inc/stm32f4xx_ll_tim.h **** /** @defgroup TIM_LL_EC_TS Trigger Selection
 784:Drivers/STM32F4xx_HAL_Driver/Inc/stm32f4xx_ll_tim.h ****   * @{
 785:Drivers/STM32F4xx_HAL_Driver/Inc/stm32f4xx_ll_tim.h ****   */
 786:Drivers/STM32F4xx_HAL_Driver/Inc/stm32f4xx_ll_tim.h **** #define LL_TIM_TS_ITR0                         0x00000000U                                         
 787:Drivers/STM32F4xx_HAL_Driver/Inc/stm32f4xx_ll_tim.h **** #define LL_TIM_TS_ITR1                         TIM_SMCR_TS_0                                       
 788:Drivers/STM32F4xx_HAL_Driver/Inc/stm32f4xx_ll_tim.h **** #define LL_TIM_TS_ITR2                         TIM_SMCR_TS_1                                       
 789:Drivers/STM32F4xx_HAL_Driver/Inc/stm32f4xx_ll_tim.h **** #define LL_TIM_TS_ITR3                         (TIM_SMCR_TS_0 | TIM_SMCR_TS_1)                     
 790:Drivers/STM32F4xx_HAL_Driver/Inc/stm32f4xx_ll_tim.h **** #define LL_TIM_TS_TI1F_ED                      TIM_SMCR_TS_2                                       
 791:Drivers/STM32F4xx_HAL_Driver/Inc/stm32f4xx_ll_tim.h **** #define LL_TIM_TS_TI1FP1                       (TIM_SMCR_TS_2 | TIM_SMCR_TS_0)                     
 792:Drivers/STM32F4xx_HAL_Driver/Inc/stm32f4xx_ll_tim.h **** #define LL_TIM_TS_TI2FP2                       (TIM_SMCR_TS_2 | TIM_SMCR_TS_1)                     
 793:Drivers/STM32F4xx_HAL_Driver/Inc/stm32f4xx_ll_tim.h **** #define LL_TIM_TS_ETRF                         (TIM_SMCR_TS_2 | TIM_SMCR_TS_1 | TIM_SMCR_TS_0)     
 794:Drivers/STM32F4xx_HAL_Driver/Inc/stm32f4xx_ll_tim.h **** /**
 795:Drivers/STM32F4xx_HAL_Driver/Inc/stm32f4xx_ll_tim.h ****   * @}
 796:Drivers/STM32F4xx_HAL_Driver/Inc/stm32f4xx_ll_tim.h ****   */
 797:Drivers/STM32F4xx_HAL_Driver/Inc/stm32f4xx_ll_tim.h **** 
 798:Drivers/STM32F4xx_HAL_Driver/Inc/stm32f4xx_ll_tim.h **** /** @defgroup TIM_LL_EC_ETR_POLARITY External Trigger Polarity
 799:Drivers/STM32F4xx_HAL_Driver/Inc/stm32f4xx_ll_tim.h ****   * @{
 800:Drivers/STM32F4xx_HAL_Driver/Inc/stm32f4xx_ll_tim.h ****   */
 801:Drivers/STM32F4xx_HAL_Driver/Inc/stm32f4xx_ll_tim.h **** #define LL_TIM_ETR_POLARITY_NONINVERTED        0x00000000U             /*!< ETR is non-inverted, ac
ARM GAS  /tmp/ccdh1ORM.s 			page 24


 802:Drivers/STM32F4xx_HAL_Driver/Inc/stm32f4xx_ll_tim.h **** #define LL_TIM_ETR_POLARITY_INVERTED           TIM_SMCR_ETP            /*!< ETR is inverted, active
 803:Drivers/STM32F4xx_HAL_Driver/Inc/stm32f4xx_ll_tim.h **** /**
 804:Drivers/STM32F4xx_HAL_Driver/Inc/stm32f4xx_ll_tim.h ****   * @}
 805:Drivers/STM32F4xx_HAL_Driver/Inc/stm32f4xx_ll_tim.h ****   */
 806:Drivers/STM32F4xx_HAL_Driver/Inc/stm32f4xx_ll_tim.h **** 
 807:Drivers/STM32F4xx_HAL_Driver/Inc/stm32f4xx_ll_tim.h **** /** @defgroup TIM_LL_EC_ETR_PRESCALER External Trigger Prescaler
 808:Drivers/STM32F4xx_HAL_Driver/Inc/stm32f4xx_ll_tim.h ****   * @{
 809:Drivers/STM32F4xx_HAL_Driver/Inc/stm32f4xx_ll_tim.h ****   */
 810:Drivers/STM32F4xx_HAL_Driver/Inc/stm32f4xx_ll_tim.h **** #define LL_TIM_ETR_PRESCALER_DIV1              0x00000000U             /*!< ETR prescaler OFF */
 811:Drivers/STM32F4xx_HAL_Driver/Inc/stm32f4xx_ll_tim.h **** #define LL_TIM_ETR_PRESCALER_DIV2              TIM_SMCR_ETPS_0         /*!< ETR frequency is divide
 812:Drivers/STM32F4xx_HAL_Driver/Inc/stm32f4xx_ll_tim.h **** #define LL_TIM_ETR_PRESCALER_DIV4              TIM_SMCR_ETPS_1         /*!< ETR frequency is divide
 813:Drivers/STM32F4xx_HAL_Driver/Inc/stm32f4xx_ll_tim.h **** #define LL_TIM_ETR_PRESCALER_DIV8              TIM_SMCR_ETPS           /*!< ETR frequency is divide
 814:Drivers/STM32F4xx_HAL_Driver/Inc/stm32f4xx_ll_tim.h **** /**
 815:Drivers/STM32F4xx_HAL_Driver/Inc/stm32f4xx_ll_tim.h ****   * @}
 816:Drivers/STM32F4xx_HAL_Driver/Inc/stm32f4xx_ll_tim.h ****   */
 817:Drivers/STM32F4xx_HAL_Driver/Inc/stm32f4xx_ll_tim.h **** 
 818:Drivers/STM32F4xx_HAL_Driver/Inc/stm32f4xx_ll_tim.h **** /** @defgroup TIM_LL_EC_ETR_FILTER External Trigger Filter
 819:Drivers/STM32F4xx_HAL_Driver/Inc/stm32f4xx_ll_tim.h ****   * @{
 820:Drivers/STM32F4xx_HAL_Driver/Inc/stm32f4xx_ll_tim.h ****   */
 821:Drivers/STM32F4xx_HAL_Driver/Inc/stm32f4xx_ll_tim.h **** #define LL_TIM_ETR_FILTER_FDIV1                0x00000000U                                         
 822:Drivers/STM32F4xx_HAL_Driver/Inc/stm32f4xx_ll_tim.h **** #define LL_TIM_ETR_FILTER_FDIV1_N2             TIM_SMCR_ETF_0                                      
 823:Drivers/STM32F4xx_HAL_Driver/Inc/stm32f4xx_ll_tim.h **** #define LL_TIM_ETR_FILTER_FDIV1_N4             TIM_SMCR_ETF_1                                      
 824:Drivers/STM32F4xx_HAL_Driver/Inc/stm32f4xx_ll_tim.h **** #define LL_TIM_ETR_FILTER_FDIV1_N8             (TIM_SMCR_ETF_1 | TIM_SMCR_ETF_0)                   
 825:Drivers/STM32F4xx_HAL_Driver/Inc/stm32f4xx_ll_tim.h **** #define LL_TIM_ETR_FILTER_FDIV2_N6             TIM_SMCR_ETF_2                                      
 826:Drivers/STM32F4xx_HAL_Driver/Inc/stm32f4xx_ll_tim.h **** #define LL_TIM_ETR_FILTER_FDIV2_N8             (TIM_SMCR_ETF_2 | TIM_SMCR_ETF_0)                   
 827:Drivers/STM32F4xx_HAL_Driver/Inc/stm32f4xx_ll_tim.h **** #define LL_TIM_ETR_FILTER_FDIV4_N6             (TIM_SMCR_ETF_2 | TIM_SMCR_ETF_1)                   
 828:Drivers/STM32F4xx_HAL_Driver/Inc/stm32f4xx_ll_tim.h **** #define LL_TIM_ETR_FILTER_FDIV4_N8             (TIM_SMCR_ETF_2 | TIM_SMCR_ETF_1 | TIM_SMCR_ETF_0)  
 829:Drivers/STM32F4xx_HAL_Driver/Inc/stm32f4xx_ll_tim.h **** #define LL_TIM_ETR_FILTER_FDIV8_N6             TIM_SMCR_ETF_3                                      
 830:Drivers/STM32F4xx_HAL_Driver/Inc/stm32f4xx_ll_tim.h **** #define LL_TIM_ETR_FILTER_FDIV8_N8             (TIM_SMCR_ETF_3 | TIM_SMCR_ETF_0)                   
 831:Drivers/STM32F4xx_HAL_Driver/Inc/stm32f4xx_ll_tim.h **** #define LL_TIM_ETR_FILTER_FDIV16_N5            (TIM_SMCR_ETF_3 | TIM_SMCR_ETF_1)                   
 832:Drivers/STM32F4xx_HAL_Driver/Inc/stm32f4xx_ll_tim.h **** #define LL_TIM_ETR_FILTER_FDIV16_N6            (TIM_SMCR_ETF_3 | TIM_SMCR_ETF_1 | TIM_SMCR_ETF_0)  
 833:Drivers/STM32F4xx_HAL_Driver/Inc/stm32f4xx_ll_tim.h **** #define LL_TIM_ETR_FILTER_FDIV16_N8            (TIM_SMCR_ETF_3 | TIM_SMCR_ETF_2)                   
 834:Drivers/STM32F4xx_HAL_Driver/Inc/stm32f4xx_ll_tim.h **** #define LL_TIM_ETR_FILTER_FDIV32_N5            (TIM_SMCR_ETF_3 | TIM_SMCR_ETF_2 | TIM_SMCR_ETF_0)  
 835:Drivers/STM32F4xx_HAL_Driver/Inc/stm32f4xx_ll_tim.h **** #define LL_TIM_ETR_FILTER_FDIV32_N6            (TIM_SMCR_ETF_3 | TIM_SMCR_ETF_2 | TIM_SMCR_ETF_1)  
 836:Drivers/STM32F4xx_HAL_Driver/Inc/stm32f4xx_ll_tim.h **** #define LL_TIM_ETR_FILTER_FDIV32_N8            TIM_SMCR_ETF                                        
 837:Drivers/STM32F4xx_HAL_Driver/Inc/stm32f4xx_ll_tim.h **** /**
 838:Drivers/STM32F4xx_HAL_Driver/Inc/stm32f4xx_ll_tim.h ****   * @}
 839:Drivers/STM32F4xx_HAL_Driver/Inc/stm32f4xx_ll_tim.h ****   */
 840:Drivers/STM32F4xx_HAL_Driver/Inc/stm32f4xx_ll_tim.h **** 
 841:Drivers/STM32F4xx_HAL_Driver/Inc/stm32f4xx_ll_tim.h **** 
 842:Drivers/STM32F4xx_HAL_Driver/Inc/stm32f4xx_ll_tim.h **** /** @defgroup TIM_LL_EC_BREAK_POLARITY break polarity
 843:Drivers/STM32F4xx_HAL_Driver/Inc/stm32f4xx_ll_tim.h ****   * @{
 844:Drivers/STM32F4xx_HAL_Driver/Inc/stm32f4xx_ll_tim.h ****   */
 845:Drivers/STM32F4xx_HAL_Driver/Inc/stm32f4xx_ll_tim.h **** #define LL_TIM_BREAK_POLARITY_LOW              0x00000000U               /*!< Break input BRK is ac
 846:Drivers/STM32F4xx_HAL_Driver/Inc/stm32f4xx_ll_tim.h **** #define LL_TIM_BREAK_POLARITY_HIGH             TIM_BDTR_BKP              /*!< Break input BRK is ac
 847:Drivers/STM32F4xx_HAL_Driver/Inc/stm32f4xx_ll_tim.h **** /**
 848:Drivers/STM32F4xx_HAL_Driver/Inc/stm32f4xx_ll_tim.h ****   * @}
 849:Drivers/STM32F4xx_HAL_Driver/Inc/stm32f4xx_ll_tim.h ****   */
 850:Drivers/STM32F4xx_HAL_Driver/Inc/stm32f4xx_ll_tim.h **** 
 851:Drivers/STM32F4xx_HAL_Driver/Inc/stm32f4xx_ll_tim.h **** 
 852:Drivers/STM32F4xx_HAL_Driver/Inc/stm32f4xx_ll_tim.h **** 
 853:Drivers/STM32F4xx_HAL_Driver/Inc/stm32f4xx_ll_tim.h **** 
 854:Drivers/STM32F4xx_HAL_Driver/Inc/stm32f4xx_ll_tim.h **** /** @defgroup TIM_LL_EC_OSSI OSSI
 855:Drivers/STM32F4xx_HAL_Driver/Inc/stm32f4xx_ll_tim.h ****   * @{
 856:Drivers/STM32F4xx_HAL_Driver/Inc/stm32f4xx_ll_tim.h ****   */
 857:Drivers/STM32F4xx_HAL_Driver/Inc/stm32f4xx_ll_tim.h **** #define LL_TIM_OSSI_DISABLE                    0x00000000U             /*!< When inactive, OCx/OCxN
 858:Drivers/STM32F4xx_HAL_Driver/Inc/stm32f4xx_ll_tim.h **** #define LL_TIM_OSSI_ENABLE                     TIM_BDTR_OSSI           /*!< When inactive, OxC/OCxN
ARM GAS  /tmp/ccdh1ORM.s 			page 25


 859:Drivers/STM32F4xx_HAL_Driver/Inc/stm32f4xx_ll_tim.h **** /**
 860:Drivers/STM32F4xx_HAL_Driver/Inc/stm32f4xx_ll_tim.h ****   * @}
 861:Drivers/STM32F4xx_HAL_Driver/Inc/stm32f4xx_ll_tim.h ****   */
 862:Drivers/STM32F4xx_HAL_Driver/Inc/stm32f4xx_ll_tim.h **** 
 863:Drivers/STM32F4xx_HAL_Driver/Inc/stm32f4xx_ll_tim.h **** /** @defgroup TIM_LL_EC_OSSR OSSR
 864:Drivers/STM32F4xx_HAL_Driver/Inc/stm32f4xx_ll_tim.h ****   * @{
 865:Drivers/STM32F4xx_HAL_Driver/Inc/stm32f4xx_ll_tim.h ****   */
 866:Drivers/STM32F4xx_HAL_Driver/Inc/stm32f4xx_ll_tim.h **** #define LL_TIM_OSSR_DISABLE                    0x00000000U             /*!< When inactive, OCx/OCxN
 867:Drivers/STM32F4xx_HAL_Driver/Inc/stm32f4xx_ll_tim.h **** #define LL_TIM_OSSR_ENABLE                     TIM_BDTR_OSSR           /*!< When inactive, OC/OCN o
 868:Drivers/STM32F4xx_HAL_Driver/Inc/stm32f4xx_ll_tim.h **** /**
 869:Drivers/STM32F4xx_HAL_Driver/Inc/stm32f4xx_ll_tim.h ****   * @}
 870:Drivers/STM32F4xx_HAL_Driver/Inc/stm32f4xx_ll_tim.h ****   */
 871:Drivers/STM32F4xx_HAL_Driver/Inc/stm32f4xx_ll_tim.h **** 
 872:Drivers/STM32F4xx_HAL_Driver/Inc/stm32f4xx_ll_tim.h **** 
 873:Drivers/STM32F4xx_HAL_Driver/Inc/stm32f4xx_ll_tim.h **** /** @defgroup TIM_LL_EC_DMABURST_BASEADDR DMA Burst Base Address
 874:Drivers/STM32F4xx_HAL_Driver/Inc/stm32f4xx_ll_tim.h ****   * @{
 875:Drivers/STM32F4xx_HAL_Driver/Inc/stm32f4xx_ll_tim.h ****   */
 876:Drivers/STM32F4xx_HAL_Driver/Inc/stm32f4xx_ll_tim.h **** #define LL_TIM_DMABURST_BASEADDR_CR1           0x00000000U                                         
 877:Drivers/STM32F4xx_HAL_Driver/Inc/stm32f4xx_ll_tim.h **** #define LL_TIM_DMABURST_BASEADDR_CR2           TIM_DCR_DBA_0                                       
 878:Drivers/STM32F4xx_HAL_Driver/Inc/stm32f4xx_ll_tim.h **** #define LL_TIM_DMABURST_BASEADDR_SMCR          TIM_DCR_DBA_1                                       
 879:Drivers/STM32F4xx_HAL_Driver/Inc/stm32f4xx_ll_tim.h **** #define LL_TIM_DMABURST_BASEADDR_DIER          (TIM_DCR_DBA_1 |  TIM_DCR_DBA_0)                    
 880:Drivers/STM32F4xx_HAL_Driver/Inc/stm32f4xx_ll_tim.h **** #define LL_TIM_DMABURST_BASEADDR_SR            TIM_DCR_DBA_2                                       
 881:Drivers/STM32F4xx_HAL_Driver/Inc/stm32f4xx_ll_tim.h **** #define LL_TIM_DMABURST_BASEADDR_EGR           (TIM_DCR_DBA_2 | TIM_DCR_DBA_0)                     
 882:Drivers/STM32F4xx_HAL_Driver/Inc/stm32f4xx_ll_tim.h **** #define LL_TIM_DMABURST_BASEADDR_CCMR1         (TIM_DCR_DBA_2 | TIM_DCR_DBA_1)                     
 883:Drivers/STM32F4xx_HAL_Driver/Inc/stm32f4xx_ll_tim.h **** #define LL_TIM_DMABURST_BASEADDR_CCMR2         (TIM_DCR_DBA_2 | TIM_DCR_DBA_1 | TIM_DCR_DBA_0)     
 884:Drivers/STM32F4xx_HAL_Driver/Inc/stm32f4xx_ll_tim.h **** #define LL_TIM_DMABURST_BASEADDR_CCER          TIM_DCR_DBA_3                                       
 885:Drivers/STM32F4xx_HAL_Driver/Inc/stm32f4xx_ll_tim.h **** #define LL_TIM_DMABURST_BASEADDR_CNT           (TIM_DCR_DBA_3 | TIM_DCR_DBA_0)                     
 886:Drivers/STM32F4xx_HAL_Driver/Inc/stm32f4xx_ll_tim.h **** #define LL_TIM_DMABURST_BASEADDR_PSC           (TIM_DCR_DBA_3 | TIM_DCR_DBA_1)                     
 887:Drivers/STM32F4xx_HAL_Driver/Inc/stm32f4xx_ll_tim.h **** #define LL_TIM_DMABURST_BASEADDR_ARR           (TIM_DCR_DBA_3 | TIM_DCR_DBA_1 | TIM_DCR_DBA_0)     
 888:Drivers/STM32F4xx_HAL_Driver/Inc/stm32f4xx_ll_tim.h **** #define LL_TIM_DMABURST_BASEADDR_RCR           (TIM_DCR_DBA_3 | TIM_DCR_DBA_2)                     
 889:Drivers/STM32F4xx_HAL_Driver/Inc/stm32f4xx_ll_tim.h **** #define LL_TIM_DMABURST_BASEADDR_CCR1          (TIM_DCR_DBA_3 | TIM_DCR_DBA_2 | TIM_DCR_DBA_0)     
 890:Drivers/STM32F4xx_HAL_Driver/Inc/stm32f4xx_ll_tim.h **** #define LL_TIM_DMABURST_BASEADDR_CCR2          (TIM_DCR_DBA_3 | TIM_DCR_DBA_2 | TIM_DCR_DBA_1)     
 891:Drivers/STM32F4xx_HAL_Driver/Inc/stm32f4xx_ll_tim.h **** #define LL_TIM_DMABURST_BASEADDR_CCR3          (TIM_DCR_DBA_3 | TIM_DCR_DBA_2 | TIM_DCR_DBA_1 | TIM
 892:Drivers/STM32F4xx_HAL_Driver/Inc/stm32f4xx_ll_tim.h **** #define LL_TIM_DMABURST_BASEADDR_CCR4          TIM_DCR_DBA_4                                       
 893:Drivers/STM32F4xx_HAL_Driver/Inc/stm32f4xx_ll_tim.h **** #define LL_TIM_DMABURST_BASEADDR_BDTR          (TIM_DCR_DBA_4 | TIM_DCR_DBA_0)                     
 894:Drivers/STM32F4xx_HAL_Driver/Inc/stm32f4xx_ll_tim.h **** /**
 895:Drivers/STM32F4xx_HAL_Driver/Inc/stm32f4xx_ll_tim.h ****   * @}
 896:Drivers/STM32F4xx_HAL_Driver/Inc/stm32f4xx_ll_tim.h ****   */
 897:Drivers/STM32F4xx_HAL_Driver/Inc/stm32f4xx_ll_tim.h **** 
 898:Drivers/STM32F4xx_HAL_Driver/Inc/stm32f4xx_ll_tim.h **** /** @defgroup TIM_LL_EC_DMABURST_LENGTH DMA Burst Length
 899:Drivers/STM32F4xx_HAL_Driver/Inc/stm32f4xx_ll_tim.h ****   * @{
 900:Drivers/STM32F4xx_HAL_Driver/Inc/stm32f4xx_ll_tim.h ****   */
 901:Drivers/STM32F4xx_HAL_Driver/Inc/stm32f4xx_ll_tim.h **** #define LL_TIM_DMABURST_LENGTH_1TRANSFER       0x00000000U                                         
 902:Drivers/STM32F4xx_HAL_Driver/Inc/stm32f4xx_ll_tim.h **** #define LL_TIM_DMABURST_LENGTH_2TRANSFERS      TIM_DCR_DBL_0                                       
 903:Drivers/STM32F4xx_HAL_Driver/Inc/stm32f4xx_ll_tim.h **** #define LL_TIM_DMABURST_LENGTH_3TRANSFERS      TIM_DCR_DBL_1                                       
 904:Drivers/STM32F4xx_HAL_Driver/Inc/stm32f4xx_ll_tim.h **** #define LL_TIM_DMABURST_LENGTH_4TRANSFERS      (TIM_DCR_DBL_1 |  TIM_DCR_DBL_0)                    
 905:Drivers/STM32F4xx_HAL_Driver/Inc/stm32f4xx_ll_tim.h **** #define LL_TIM_DMABURST_LENGTH_5TRANSFERS      TIM_DCR_DBL_2                                       
 906:Drivers/STM32F4xx_HAL_Driver/Inc/stm32f4xx_ll_tim.h **** #define LL_TIM_DMABURST_LENGTH_6TRANSFERS      (TIM_DCR_DBL_2 | TIM_DCR_DBL_0)                     
 907:Drivers/STM32F4xx_HAL_Driver/Inc/stm32f4xx_ll_tim.h **** #define LL_TIM_DMABURST_LENGTH_7TRANSFERS      (TIM_DCR_DBL_2 | TIM_DCR_DBL_1)                     
 908:Drivers/STM32F4xx_HAL_Driver/Inc/stm32f4xx_ll_tim.h **** #define LL_TIM_DMABURST_LENGTH_8TRANSFERS      (TIM_DCR_DBL_2 | TIM_DCR_DBL_1 | TIM_DCR_DBL_0)     
 909:Drivers/STM32F4xx_HAL_Driver/Inc/stm32f4xx_ll_tim.h **** #define LL_TIM_DMABURST_LENGTH_9TRANSFERS      TIM_DCR_DBL_3                                       
 910:Drivers/STM32F4xx_HAL_Driver/Inc/stm32f4xx_ll_tim.h **** #define LL_TIM_DMABURST_LENGTH_10TRANSFERS     (TIM_DCR_DBL_3 | TIM_DCR_DBL_0)                     
 911:Drivers/STM32F4xx_HAL_Driver/Inc/stm32f4xx_ll_tim.h **** #define LL_TIM_DMABURST_LENGTH_11TRANSFERS     (TIM_DCR_DBL_3 | TIM_DCR_DBL_1)                     
 912:Drivers/STM32F4xx_HAL_Driver/Inc/stm32f4xx_ll_tim.h **** #define LL_TIM_DMABURST_LENGTH_12TRANSFERS     (TIM_DCR_DBL_3 | TIM_DCR_DBL_1 | TIM_DCR_DBL_0)     
 913:Drivers/STM32F4xx_HAL_Driver/Inc/stm32f4xx_ll_tim.h **** #define LL_TIM_DMABURST_LENGTH_13TRANSFERS     (TIM_DCR_DBL_3 | TIM_DCR_DBL_2)                     
 914:Drivers/STM32F4xx_HAL_Driver/Inc/stm32f4xx_ll_tim.h **** #define LL_TIM_DMABURST_LENGTH_14TRANSFERS     (TIM_DCR_DBL_3 | TIM_DCR_DBL_2 | TIM_DCR_DBL_0)     
 915:Drivers/STM32F4xx_HAL_Driver/Inc/stm32f4xx_ll_tim.h **** #define LL_TIM_DMABURST_LENGTH_15TRANSFERS     (TIM_DCR_DBL_3 | TIM_DCR_DBL_2 | TIM_DCR_DBL_1)     
ARM GAS  /tmp/ccdh1ORM.s 			page 26


 916:Drivers/STM32F4xx_HAL_Driver/Inc/stm32f4xx_ll_tim.h **** #define LL_TIM_DMABURST_LENGTH_16TRANSFERS     (TIM_DCR_DBL_3 | TIM_DCR_DBL_2 | TIM_DCR_DBL_1 | TIM
 917:Drivers/STM32F4xx_HAL_Driver/Inc/stm32f4xx_ll_tim.h **** #define LL_TIM_DMABURST_LENGTH_17TRANSFERS     TIM_DCR_DBL_4                                       
 918:Drivers/STM32F4xx_HAL_Driver/Inc/stm32f4xx_ll_tim.h **** #define LL_TIM_DMABURST_LENGTH_18TRANSFERS     (TIM_DCR_DBL_4 |  TIM_DCR_DBL_0)                    
 919:Drivers/STM32F4xx_HAL_Driver/Inc/stm32f4xx_ll_tim.h **** /**
 920:Drivers/STM32F4xx_HAL_Driver/Inc/stm32f4xx_ll_tim.h ****   * @}
 921:Drivers/STM32F4xx_HAL_Driver/Inc/stm32f4xx_ll_tim.h ****   */
 922:Drivers/STM32F4xx_HAL_Driver/Inc/stm32f4xx_ll_tim.h **** 
 923:Drivers/STM32F4xx_HAL_Driver/Inc/stm32f4xx_ll_tim.h **** 
 924:Drivers/STM32F4xx_HAL_Driver/Inc/stm32f4xx_ll_tim.h **** /** @defgroup TIM_LL_EC_TIM2_ITR1_RMP_TIM8  TIM2 Internal Trigger1 Remap TIM8
 925:Drivers/STM32F4xx_HAL_Driver/Inc/stm32f4xx_ll_tim.h ****   * @{
 926:Drivers/STM32F4xx_HAL_Driver/Inc/stm32f4xx_ll_tim.h ****   */
 927:Drivers/STM32F4xx_HAL_Driver/Inc/stm32f4xx_ll_tim.h **** #define LL_TIM_TIM2_ITR1_RMP_TIM8_TRGO    TIM2_OR_RMP_MASK                        /*!< TIM2_ITR1 is
 928:Drivers/STM32F4xx_HAL_Driver/Inc/stm32f4xx_ll_tim.h **** #define LL_TIM_TIM2_ITR1_RMP_ETH_PTP      (TIM_OR_ITR1_RMP_0 | TIM2_OR_RMP_MASK)  /*!< TIM2_ITR1 is
 929:Drivers/STM32F4xx_HAL_Driver/Inc/stm32f4xx_ll_tim.h **** #define LL_TIM_TIM2_ITR1_RMP_OTG_FS_SOF   (TIM_OR_ITR1_RMP_1 | TIM2_OR_RMP_MASK)  /*!< TIM2_ITR1 is
 930:Drivers/STM32F4xx_HAL_Driver/Inc/stm32f4xx_ll_tim.h **** #define LL_TIM_TIM2_ITR1_RMP_OTG_HS_SOF   (TIM_OR_ITR1_RMP | TIM2_OR_RMP_MASK)    /*!< TIM2_ITR1 is
 931:Drivers/STM32F4xx_HAL_Driver/Inc/stm32f4xx_ll_tim.h **** /**
 932:Drivers/STM32F4xx_HAL_Driver/Inc/stm32f4xx_ll_tim.h ****   * @}
 933:Drivers/STM32F4xx_HAL_Driver/Inc/stm32f4xx_ll_tim.h ****   */
 934:Drivers/STM32F4xx_HAL_Driver/Inc/stm32f4xx_ll_tim.h **** 
 935:Drivers/STM32F4xx_HAL_Driver/Inc/stm32f4xx_ll_tim.h **** /** @defgroup TIM_LL_EC_TIM5_TI4_RMP  TIM5 External Input Ch4 Remap
 936:Drivers/STM32F4xx_HAL_Driver/Inc/stm32f4xx_ll_tim.h ****   * @{
 937:Drivers/STM32F4xx_HAL_Driver/Inc/stm32f4xx_ll_tim.h ****   */
 938:Drivers/STM32F4xx_HAL_Driver/Inc/stm32f4xx_ll_tim.h **** #define LL_TIM_TIM5_TI4_RMP_GPIO        TIM5_OR_RMP_MASK                         /*!< TIM5 channel 
 939:Drivers/STM32F4xx_HAL_Driver/Inc/stm32f4xx_ll_tim.h **** #define LL_TIM_TIM5_TI4_RMP_LSI         (TIM_OR_TI4_RMP_0 | TIM5_OR_RMP_MASK)    /*!< TIM5 channel 
 940:Drivers/STM32F4xx_HAL_Driver/Inc/stm32f4xx_ll_tim.h **** #define LL_TIM_TIM5_TI4_RMP_LSE         (TIM_OR_TI4_RMP_1 | TIM5_OR_RMP_MASK)    /*!< TIM5 channel 
 941:Drivers/STM32F4xx_HAL_Driver/Inc/stm32f4xx_ll_tim.h **** #define LL_TIM_TIM5_TI4_RMP_RTC         (TIM_OR_TI4_RMP | TIM5_OR_RMP_MASK)      /*!< TIM5 channel 
 942:Drivers/STM32F4xx_HAL_Driver/Inc/stm32f4xx_ll_tim.h **** /**
 943:Drivers/STM32F4xx_HAL_Driver/Inc/stm32f4xx_ll_tim.h ****   * @}
 944:Drivers/STM32F4xx_HAL_Driver/Inc/stm32f4xx_ll_tim.h ****   */
 945:Drivers/STM32F4xx_HAL_Driver/Inc/stm32f4xx_ll_tim.h **** 
 946:Drivers/STM32F4xx_HAL_Driver/Inc/stm32f4xx_ll_tim.h **** /** @defgroup TIM_LL_EC_TIM11_TI1_RMP  TIM11 External Input Capture 1 Remap
 947:Drivers/STM32F4xx_HAL_Driver/Inc/stm32f4xx_ll_tim.h ****   * @{
 948:Drivers/STM32F4xx_HAL_Driver/Inc/stm32f4xx_ll_tim.h ****   */
 949:Drivers/STM32F4xx_HAL_Driver/Inc/stm32f4xx_ll_tim.h **** #define LL_TIM_TIM11_TI1_RMP_GPIO        TIM11_OR_RMP_MASK                          /*!< TIM11 chan
 950:Drivers/STM32F4xx_HAL_Driver/Inc/stm32f4xx_ll_tim.h **** #if defined(SPDIFRX)
 951:Drivers/STM32F4xx_HAL_Driver/Inc/stm32f4xx_ll_tim.h **** #define LL_TIM_TIM11_TI1_RMP_SPDIFRX     (TIM_OR_TI1_RMP_0 | TIM11_OR_RMP_MASK)     /*!< TIM11 chan
 952:Drivers/STM32F4xx_HAL_Driver/Inc/stm32f4xx_ll_tim.h **** 
 953:Drivers/STM32F4xx_HAL_Driver/Inc/stm32f4xx_ll_tim.h **** /* Legacy define */
 954:Drivers/STM32F4xx_HAL_Driver/Inc/stm32f4xx_ll_tim.h **** #define  LL_TIM_TIM11_TI1_RMP_GPIO1      LL_TIM_TIM11_TI1_RMP_SPDIFRX               /*!< Legacy def
 955:Drivers/STM32F4xx_HAL_Driver/Inc/stm32f4xx_ll_tim.h **** 
 956:Drivers/STM32F4xx_HAL_Driver/Inc/stm32f4xx_ll_tim.h **** #else
 957:Drivers/STM32F4xx_HAL_Driver/Inc/stm32f4xx_ll_tim.h **** #define LL_TIM_TIM11_TI1_RMP_GPIO1       (TIM_OR_TI1_RMP_0 | TIM11_OR_RMP_MASK)     /*!< TIM11 chan
 958:Drivers/STM32F4xx_HAL_Driver/Inc/stm32f4xx_ll_tim.h **** #endif /* SPDIFRX */
 959:Drivers/STM32F4xx_HAL_Driver/Inc/stm32f4xx_ll_tim.h **** #define LL_TIM_TIM11_TI1_RMP_GPIO2       (TIM_OR_TI1_RMP   | TIM11_OR_RMP_MASK)     /*!< TIM11 chan
 960:Drivers/STM32F4xx_HAL_Driver/Inc/stm32f4xx_ll_tim.h **** #define LL_TIM_TIM11_TI1_RMP_HSE_RTC     (TIM_OR_TI1_RMP_1 | TIM11_OR_RMP_MASK)     /*!< TIM11 chan
 961:Drivers/STM32F4xx_HAL_Driver/Inc/stm32f4xx_ll_tim.h **** /**
 962:Drivers/STM32F4xx_HAL_Driver/Inc/stm32f4xx_ll_tim.h ****   * @}
 963:Drivers/STM32F4xx_HAL_Driver/Inc/stm32f4xx_ll_tim.h ****   */
 964:Drivers/STM32F4xx_HAL_Driver/Inc/stm32f4xx_ll_tim.h **** #if defined(LPTIM_OR_TIM1_ITR2_RMP) && defined(LPTIM_OR_TIM5_ITR1_RMP) && defined(LPTIM_OR_TIM9_ITR
 965:Drivers/STM32F4xx_HAL_Driver/Inc/stm32f4xx_ll_tim.h **** 
 966:Drivers/STM32F4xx_HAL_Driver/Inc/stm32f4xx_ll_tim.h **** #define LL_TIM_LPTIM_REMAP_MASK           0x10000000U
 967:Drivers/STM32F4xx_HAL_Driver/Inc/stm32f4xx_ll_tim.h **** 
 968:Drivers/STM32F4xx_HAL_Driver/Inc/stm32f4xx_ll_tim.h **** #define LL_TIM_TIM9_ITR1_RMP_TIM3_TRGO    LL_TIM_LPTIM_REMAP_MASK                              /*!<
 969:Drivers/STM32F4xx_HAL_Driver/Inc/stm32f4xx_ll_tim.h **** #define LL_TIM_TIM9_ITR1_RMP_LPTIM       (LL_TIM_LPTIM_REMAP_MASK | LPTIM_OR_TIM9_ITR1_RMP)    /*!<
 970:Drivers/STM32F4xx_HAL_Driver/Inc/stm32f4xx_ll_tim.h **** 
 971:Drivers/STM32F4xx_HAL_Driver/Inc/stm32f4xx_ll_tim.h **** #define LL_TIM_TIM5_ITR1_RMP_TIM3_TRGO    LL_TIM_LPTIM_REMAP_MASK                              /*!<
 972:Drivers/STM32F4xx_HAL_Driver/Inc/stm32f4xx_ll_tim.h **** #define LL_TIM_TIM5_ITR1_RMP_LPTIM       (LL_TIM_LPTIM_REMAP_MASK | LPTIM_OR_TIM5_ITR1_RMP)    /*!<
ARM GAS  /tmp/ccdh1ORM.s 			page 27


 973:Drivers/STM32F4xx_HAL_Driver/Inc/stm32f4xx_ll_tim.h **** 
 974:Drivers/STM32F4xx_HAL_Driver/Inc/stm32f4xx_ll_tim.h **** #define LL_TIM_TIM1_ITR2_RMP_TIM3_TRGO    LL_TIM_LPTIM_REMAP_MASK                              /*!<
 975:Drivers/STM32F4xx_HAL_Driver/Inc/stm32f4xx_ll_tim.h **** #define LL_TIM_TIM1_ITR2_RMP_LPTIM       (LL_TIM_LPTIM_REMAP_MASK | LPTIM_OR_TIM1_ITR2_RMP)    /*!<
 976:Drivers/STM32F4xx_HAL_Driver/Inc/stm32f4xx_ll_tim.h **** 
 977:Drivers/STM32F4xx_HAL_Driver/Inc/stm32f4xx_ll_tim.h **** #endif /* LPTIM_OR_TIM1_ITR2_RMP &&  LPTIM_OR_TIM5_ITR1_RMP && LPTIM_OR_TIM9_ITR1_RMP */
 978:Drivers/STM32F4xx_HAL_Driver/Inc/stm32f4xx_ll_tim.h **** 
 979:Drivers/STM32F4xx_HAL_Driver/Inc/stm32f4xx_ll_tim.h **** /**
 980:Drivers/STM32F4xx_HAL_Driver/Inc/stm32f4xx_ll_tim.h ****   * @}
 981:Drivers/STM32F4xx_HAL_Driver/Inc/stm32f4xx_ll_tim.h ****   */
 982:Drivers/STM32F4xx_HAL_Driver/Inc/stm32f4xx_ll_tim.h **** 
 983:Drivers/STM32F4xx_HAL_Driver/Inc/stm32f4xx_ll_tim.h **** /* Exported macro ------------------------------------------------------------*/
 984:Drivers/STM32F4xx_HAL_Driver/Inc/stm32f4xx_ll_tim.h **** /** @defgroup TIM_LL_Exported_Macros TIM Exported Macros
 985:Drivers/STM32F4xx_HAL_Driver/Inc/stm32f4xx_ll_tim.h ****   * @{
 986:Drivers/STM32F4xx_HAL_Driver/Inc/stm32f4xx_ll_tim.h ****   */
 987:Drivers/STM32F4xx_HAL_Driver/Inc/stm32f4xx_ll_tim.h **** 
 988:Drivers/STM32F4xx_HAL_Driver/Inc/stm32f4xx_ll_tim.h **** /** @defgroup TIM_LL_EM_WRITE_READ Common Write and read registers Macros
 989:Drivers/STM32F4xx_HAL_Driver/Inc/stm32f4xx_ll_tim.h ****   * @{
 990:Drivers/STM32F4xx_HAL_Driver/Inc/stm32f4xx_ll_tim.h ****   */
 991:Drivers/STM32F4xx_HAL_Driver/Inc/stm32f4xx_ll_tim.h **** /**
 992:Drivers/STM32F4xx_HAL_Driver/Inc/stm32f4xx_ll_tim.h ****   * @brief  Write a value in TIM register.
 993:Drivers/STM32F4xx_HAL_Driver/Inc/stm32f4xx_ll_tim.h ****   * @param  __INSTANCE__ TIM Instance
 994:Drivers/STM32F4xx_HAL_Driver/Inc/stm32f4xx_ll_tim.h ****   * @param  __REG__ Register to be written
 995:Drivers/STM32F4xx_HAL_Driver/Inc/stm32f4xx_ll_tim.h ****   * @param  __VALUE__ Value to be written in the register
 996:Drivers/STM32F4xx_HAL_Driver/Inc/stm32f4xx_ll_tim.h ****   * @retval None
 997:Drivers/STM32F4xx_HAL_Driver/Inc/stm32f4xx_ll_tim.h ****   */
 998:Drivers/STM32F4xx_HAL_Driver/Inc/stm32f4xx_ll_tim.h **** #define LL_TIM_WriteReg(__INSTANCE__, __REG__, __VALUE__) WRITE_REG((__INSTANCE__)->__REG__, (__VAL
 999:Drivers/STM32F4xx_HAL_Driver/Inc/stm32f4xx_ll_tim.h **** 
1000:Drivers/STM32F4xx_HAL_Driver/Inc/stm32f4xx_ll_tim.h **** /**
1001:Drivers/STM32F4xx_HAL_Driver/Inc/stm32f4xx_ll_tim.h ****   * @brief  Read a value in TIM register.
1002:Drivers/STM32F4xx_HAL_Driver/Inc/stm32f4xx_ll_tim.h ****   * @param  __INSTANCE__ TIM Instance
1003:Drivers/STM32F4xx_HAL_Driver/Inc/stm32f4xx_ll_tim.h ****   * @param  __REG__ Register to be read
1004:Drivers/STM32F4xx_HAL_Driver/Inc/stm32f4xx_ll_tim.h ****   * @retval Register value
1005:Drivers/STM32F4xx_HAL_Driver/Inc/stm32f4xx_ll_tim.h ****   */
1006:Drivers/STM32F4xx_HAL_Driver/Inc/stm32f4xx_ll_tim.h **** #define LL_TIM_ReadReg(__INSTANCE__, __REG__) READ_REG((__INSTANCE__)->__REG__)
1007:Drivers/STM32F4xx_HAL_Driver/Inc/stm32f4xx_ll_tim.h **** /**
1008:Drivers/STM32F4xx_HAL_Driver/Inc/stm32f4xx_ll_tim.h ****   * @}
1009:Drivers/STM32F4xx_HAL_Driver/Inc/stm32f4xx_ll_tim.h ****   */
1010:Drivers/STM32F4xx_HAL_Driver/Inc/stm32f4xx_ll_tim.h **** 
1011:Drivers/STM32F4xx_HAL_Driver/Inc/stm32f4xx_ll_tim.h **** /** @defgroup TIM_LL_EM_Exported_Macros Exported_Macros
1012:Drivers/STM32F4xx_HAL_Driver/Inc/stm32f4xx_ll_tim.h ****   * @{
1013:Drivers/STM32F4xx_HAL_Driver/Inc/stm32f4xx_ll_tim.h ****   */
1014:Drivers/STM32F4xx_HAL_Driver/Inc/stm32f4xx_ll_tim.h **** 
1015:Drivers/STM32F4xx_HAL_Driver/Inc/stm32f4xx_ll_tim.h **** /**
1016:Drivers/STM32F4xx_HAL_Driver/Inc/stm32f4xx_ll_tim.h ****   * @brief  HELPER macro calculating DTG[0:7] in the TIMx_BDTR register to achieve the requested de
1017:Drivers/STM32F4xx_HAL_Driver/Inc/stm32f4xx_ll_tim.h ****   * @note ex: @ref __LL_TIM_CALC_DEADTIME (80000000, @ref LL_TIM_GetClockDivision (), 120);
1018:Drivers/STM32F4xx_HAL_Driver/Inc/stm32f4xx_ll_tim.h ****   * @param  __TIMCLK__ timer input clock frequency (in Hz)
1019:Drivers/STM32F4xx_HAL_Driver/Inc/stm32f4xx_ll_tim.h ****   * @param  __CKD__ This parameter can be one of the following values:
1020:Drivers/STM32F4xx_HAL_Driver/Inc/stm32f4xx_ll_tim.h ****   *         @arg @ref LL_TIM_CLOCKDIVISION_DIV1
1021:Drivers/STM32F4xx_HAL_Driver/Inc/stm32f4xx_ll_tim.h ****   *         @arg @ref LL_TIM_CLOCKDIVISION_DIV2
1022:Drivers/STM32F4xx_HAL_Driver/Inc/stm32f4xx_ll_tim.h ****   *         @arg @ref LL_TIM_CLOCKDIVISION_DIV4
1023:Drivers/STM32F4xx_HAL_Driver/Inc/stm32f4xx_ll_tim.h ****   * @param  __DT__ deadtime duration (in ns)
1024:Drivers/STM32F4xx_HAL_Driver/Inc/stm32f4xx_ll_tim.h ****   * @retval DTG[0:7]
1025:Drivers/STM32F4xx_HAL_Driver/Inc/stm32f4xx_ll_tim.h ****   */
1026:Drivers/STM32F4xx_HAL_Driver/Inc/stm32f4xx_ll_tim.h **** #define __LL_TIM_CALC_DEADTIME(__TIMCLK__, __CKD__, __DT__)  \
1027:Drivers/STM32F4xx_HAL_Driver/Inc/stm32f4xx_ll_tim.h ****   ( (((uint64_t)((__DT__)*1000U)) < ((DT_DELAY_1+1U) * TIM_CALC_DTS((__TIMCLK__), (__CKD__))))    ?
1028:Drivers/STM32F4xx_HAL_Driver/Inc/stm32f4xx_ll_tim.h ****     (uint8_t)(((uint64_t)((__DT__)*1000U) / TIM_CALC_DTS((__TIMCLK__), (__CKD__)))  & DT_DELAY_1) :
1029:Drivers/STM32F4xx_HAL_Driver/Inc/stm32f4xx_ll_tim.h ****     (((uint64_t)((__DT__)*1000U)) < ((64U + (DT_DELAY_2+1U)) * 2U * TIM_CALC_DTS((__TIMCLK__), (__C
ARM GAS  /tmp/ccdh1ORM.s 			page 28


1030:Drivers/STM32F4xx_HAL_Driver/Inc/stm32f4xx_ll_tim.h ****     (uint8_t)(DT_RANGE_2 | ((uint8_t)((uint8_t)((((uint64_t)((__DT__)*1000U))/ TIM_CALC_DTS((__TIMC
1031:Drivers/STM32F4xx_HAL_Driver/Inc/stm32f4xx_ll_tim.h ****                                                  (__CKD__))) >> 1U) - (uint8_t) 64) & DT_DELAY_2)) 
1032:Drivers/STM32F4xx_HAL_Driver/Inc/stm32f4xx_ll_tim.h ****     (((uint64_t)((__DT__)*1000U)) < ((32U + (DT_DELAY_3+1U)) * 8U * TIM_CALC_DTS((__TIMCLK__), (__C
1033:Drivers/STM32F4xx_HAL_Driver/Inc/stm32f4xx_ll_tim.h ****     (uint8_t)(DT_RANGE_3 | ((uint8_t)((uint8_t)(((((uint64_t)(__DT__)*1000U))/ TIM_CALC_DTS((__TIMC
1034:Drivers/STM32F4xx_HAL_Driver/Inc/stm32f4xx_ll_tim.h ****                                                  (__CKD__))) >> 3U) - (uint8_t) 32) & DT_DELAY_3)) 
1035:Drivers/STM32F4xx_HAL_Driver/Inc/stm32f4xx_ll_tim.h ****     (((uint64_t)((__DT__)*1000U)) < ((32U + (DT_DELAY_4+1U)) * 16U * TIM_CALC_DTS((__TIMCLK__), (__
1036:Drivers/STM32F4xx_HAL_Driver/Inc/stm32f4xx_ll_tim.h ****     (uint8_t)(DT_RANGE_4 | ((uint8_t)((uint8_t)(((((uint64_t)(__DT__)*1000U))/ TIM_CALC_DTS((__TIMC
1037:Drivers/STM32F4xx_HAL_Driver/Inc/stm32f4xx_ll_tim.h ****                                                  (__CKD__))) >> 4U) - (uint8_t) 32) & DT_DELAY_4)) 
1038:Drivers/STM32F4xx_HAL_Driver/Inc/stm32f4xx_ll_tim.h ****     0U)
1039:Drivers/STM32F4xx_HAL_Driver/Inc/stm32f4xx_ll_tim.h **** 
1040:Drivers/STM32F4xx_HAL_Driver/Inc/stm32f4xx_ll_tim.h **** /**
1041:Drivers/STM32F4xx_HAL_Driver/Inc/stm32f4xx_ll_tim.h ****   * @brief  HELPER macro calculating the prescaler value to achieve the required counter clock freq
1042:Drivers/STM32F4xx_HAL_Driver/Inc/stm32f4xx_ll_tim.h ****   * @note ex: @ref __LL_TIM_CALC_PSC (80000000, 1000000);
1043:Drivers/STM32F4xx_HAL_Driver/Inc/stm32f4xx_ll_tim.h ****   * @param  __TIMCLK__ timer input clock frequency (in Hz)
1044:Drivers/STM32F4xx_HAL_Driver/Inc/stm32f4xx_ll_tim.h ****   * @param  __CNTCLK__ counter clock frequency (in Hz)
1045:Drivers/STM32F4xx_HAL_Driver/Inc/stm32f4xx_ll_tim.h ****   * @retval Prescaler value  (between Min_Data=0 and Max_Data=65535)
1046:Drivers/STM32F4xx_HAL_Driver/Inc/stm32f4xx_ll_tim.h ****   */
1047:Drivers/STM32F4xx_HAL_Driver/Inc/stm32f4xx_ll_tim.h **** #define __LL_TIM_CALC_PSC(__TIMCLK__, __CNTCLK__)   \
1048:Drivers/STM32F4xx_HAL_Driver/Inc/stm32f4xx_ll_tim.h ****   (((__TIMCLK__) >= (__CNTCLK__)) ? (uint32_t)(((__TIMCLK__)/(__CNTCLK__)) - 1U) : 0U)
1049:Drivers/STM32F4xx_HAL_Driver/Inc/stm32f4xx_ll_tim.h **** 
1050:Drivers/STM32F4xx_HAL_Driver/Inc/stm32f4xx_ll_tim.h **** /**
1051:Drivers/STM32F4xx_HAL_Driver/Inc/stm32f4xx_ll_tim.h ****   * @brief  HELPER macro calculating the auto-reload value to achieve the required output signal fr
1052:Drivers/STM32F4xx_HAL_Driver/Inc/stm32f4xx_ll_tim.h ****   * @note ex: @ref __LL_TIM_CALC_ARR (1000000, @ref LL_TIM_GetPrescaler (), 10000);
1053:Drivers/STM32F4xx_HAL_Driver/Inc/stm32f4xx_ll_tim.h ****   * @param  __TIMCLK__ timer input clock frequency (in Hz)
1054:Drivers/STM32F4xx_HAL_Driver/Inc/stm32f4xx_ll_tim.h ****   * @param  __PSC__ prescaler
1055:Drivers/STM32F4xx_HAL_Driver/Inc/stm32f4xx_ll_tim.h ****   * @param  __FREQ__ output signal frequency (in Hz)
1056:Drivers/STM32F4xx_HAL_Driver/Inc/stm32f4xx_ll_tim.h ****   * @retval  Auto-reload value  (between Min_Data=0 and Max_Data=65535)
1057:Drivers/STM32F4xx_HAL_Driver/Inc/stm32f4xx_ll_tim.h ****   */
1058:Drivers/STM32F4xx_HAL_Driver/Inc/stm32f4xx_ll_tim.h **** #define __LL_TIM_CALC_ARR(__TIMCLK__, __PSC__, __FREQ__) \
1059:Drivers/STM32F4xx_HAL_Driver/Inc/stm32f4xx_ll_tim.h ****   ((((__TIMCLK__)/((__PSC__) + 1U)) >= (__FREQ__)) ? (((__TIMCLK__)/((__FREQ__) * ((__PSC__) + 1U))
1060:Drivers/STM32F4xx_HAL_Driver/Inc/stm32f4xx_ll_tim.h **** 
1061:Drivers/STM32F4xx_HAL_Driver/Inc/stm32f4xx_ll_tim.h **** /**
1062:Drivers/STM32F4xx_HAL_Driver/Inc/stm32f4xx_ll_tim.h ****   * @brief  HELPER macro calculating the compare value required to achieve the required timer outpu
1063:Drivers/STM32F4xx_HAL_Driver/Inc/stm32f4xx_ll_tim.h ****   *         active/inactive delay.
1064:Drivers/STM32F4xx_HAL_Driver/Inc/stm32f4xx_ll_tim.h ****   * @note ex: @ref __LL_TIM_CALC_DELAY (1000000, @ref LL_TIM_GetPrescaler (), 10);
1065:Drivers/STM32F4xx_HAL_Driver/Inc/stm32f4xx_ll_tim.h ****   * @param  __TIMCLK__ timer input clock frequency (in Hz)
1066:Drivers/STM32F4xx_HAL_Driver/Inc/stm32f4xx_ll_tim.h ****   * @param  __PSC__ prescaler
1067:Drivers/STM32F4xx_HAL_Driver/Inc/stm32f4xx_ll_tim.h ****   * @param  __DELAY__ timer output compare active/inactive delay (in us)
1068:Drivers/STM32F4xx_HAL_Driver/Inc/stm32f4xx_ll_tim.h ****   * @retval Compare value  (between Min_Data=0 and Max_Data=65535)
1069:Drivers/STM32F4xx_HAL_Driver/Inc/stm32f4xx_ll_tim.h ****   */
1070:Drivers/STM32F4xx_HAL_Driver/Inc/stm32f4xx_ll_tim.h **** #define __LL_TIM_CALC_DELAY(__TIMCLK__, __PSC__, __DELAY__)  \
1071:Drivers/STM32F4xx_HAL_Driver/Inc/stm32f4xx_ll_tim.h ****   ((uint32_t)(((uint64_t)(__TIMCLK__) * (uint64_t)(__DELAY__)) \
1072:Drivers/STM32F4xx_HAL_Driver/Inc/stm32f4xx_ll_tim.h ****               / ((uint64_t)1000000U * (uint64_t)((__PSC__) + 1U))))
1073:Drivers/STM32F4xx_HAL_Driver/Inc/stm32f4xx_ll_tim.h **** 
1074:Drivers/STM32F4xx_HAL_Driver/Inc/stm32f4xx_ll_tim.h **** /**
1075:Drivers/STM32F4xx_HAL_Driver/Inc/stm32f4xx_ll_tim.h ****   * @brief  HELPER macro calculating the auto-reload value to achieve the required pulse duration
1076:Drivers/STM32F4xx_HAL_Driver/Inc/stm32f4xx_ll_tim.h ****   *         (when the timer operates in one pulse mode).
1077:Drivers/STM32F4xx_HAL_Driver/Inc/stm32f4xx_ll_tim.h ****   * @note ex: @ref __LL_TIM_CALC_PULSE (1000000, @ref LL_TIM_GetPrescaler (), 10, 20);
1078:Drivers/STM32F4xx_HAL_Driver/Inc/stm32f4xx_ll_tim.h ****   * @param  __TIMCLK__ timer input clock frequency (in Hz)
1079:Drivers/STM32F4xx_HAL_Driver/Inc/stm32f4xx_ll_tim.h ****   * @param  __PSC__ prescaler
1080:Drivers/STM32F4xx_HAL_Driver/Inc/stm32f4xx_ll_tim.h ****   * @param  __DELAY__ timer output compare active/inactive delay (in us)
1081:Drivers/STM32F4xx_HAL_Driver/Inc/stm32f4xx_ll_tim.h ****   * @param  __PULSE__ pulse duration (in us)
1082:Drivers/STM32F4xx_HAL_Driver/Inc/stm32f4xx_ll_tim.h ****   * @retval Auto-reload value  (between Min_Data=0 and Max_Data=65535)
1083:Drivers/STM32F4xx_HAL_Driver/Inc/stm32f4xx_ll_tim.h ****   */
1084:Drivers/STM32F4xx_HAL_Driver/Inc/stm32f4xx_ll_tim.h **** #define __LL_TIM_CALC_PULSE(__TIMCLK__, __PSC__, __DELAY__, __PULSE__)  \
1085:Drivers/STM32F4xx_HAL_Driver/Inc/stm32f4xx_ll_tim.h ****   ((uint32_t)(__LL_TIM_CALC_DELAY((__TIMCLK__), (__PSC__), (__PULSE__)) \
1086:Drivers/STM32F4xx_HAL_Driver/Inc/stm32f4xx_ll_tim.h ****               + __LL_TIM_CALC_DELAY((__TIMCLK__), (__PSC__), (__DELAY__))))
ARM GAS  /tmp/ccdh1ORM.s 			page 29


1087:Drivers/STM32F4xx_HAL_Driver/Inc/stm32f4xx_ll_tim.h **** 
1088:Drivers/STM32F4xx_HAL_Driver/Inc/stm32f4xx_ll_tim.h **** /**
1089:Drivers/STM32F4xx_HAL_Driver/Inc/stm32f4xx_ll_tim.h ****   * @brief  HELPER macro retrieving the ratio of the input capture prescaler
1090:Drivers/STM32F4xx_HAL_Driver/Inc/stm32f4xx_ll_tim.h ****   * @note ex: @ref __LL_TIM_GET_ICPSC_RATIO (@ref LL_TIM_IC_GetPrescaler ());
1091:Drivers/STM32F4xx_HAL_Driver/Inc/stm32f4xx_ll_tim.h ****   * @param  __ICPSC__ This parameter can be one of the following values:
1092:Drivers/STM32F4xx_HAL_Driver/Inc/stm32f4xx_ll_tim.h ****   *         @arg @ref LL_TIM_ICPSC_DIV1
1093:Drivers/STM32F4xx_HAL_Driver/Inc/stm32f4xx_ll_tim.h ****   *         @arg @ref LL_TIM_ICPSC_DIV2
1094:Drivers/STM32F4xx_HAL_Driver/Inc/stm32f4xx_ll_tim.h ****   *         @arg @ref LL_TIM_ICPSC_DIV4
1095:Drivers/STM32F4xx_HAL_Driver/Inc/stm32f4xx_ll_tim.h ****   *         @arg @ref LL_TIM_ICPSC_DIV8
1096:Drivers/STM32F4xx_HAL_Driver/Inc/stm32f4xx_ll_tim.h ****   * @retval Input capture prescaler ratio (1, 2, 4 or 8)
1097:Drivers/STM32F4xx_HAL_Driver/Inc/stm32f4xx_ll_tim.h ****   */
1098:Drivers/STM32F4xx_HAL_Driver/Inc/stm32f4xx_ll_tim.h **** #define __LL_TIM_GET_ICPSC_RATIO(__ICPSC__)  \
1099:Drivers/STM32F4xx_HAL_Driver/Inc/stm32f4xx_ll_tim.h ****   ((uint32_t)(0x01U << (((__ICPSC__) >> 16U) >> TIM_CCMR1_IC1PSC_Pos)))
1100:Drivers/STM32F4xx_HAL_Driver/Inc/stm32f4xx_ll_tim.h **** 
1101:Drivers/STM32F4xx_HAL_Driver/Inc/stm32f4xx_ll_tim.h **** 
1102:Drivers/STM32F4xx_HAL_Driver/Inc/stm32f4xx_ll_tim.h **** /**
1103:Drivers/STM32F4xx_HAL_Driver/Inc/stm32f4xx_ll_tim.h ****   * @}
1104:Drivers/STM32F4xx_HAL_Driver/Inc/stm32f4xx_ll_tim.h ****   */
1105:Drivers/STM32F4xx_HAL_Driver/Inc/stm32f4xx_ll_tim.h **** 
1106:Drivers/STM32F4xx_HAL_Driver/Inc/stm32f4xx_ll_tim.h **** 
1107:Drivers/STM32F4xx_HAL_Driver/Inc/stm32f4xx_ll_tim.h **** /**
1108:Drivers/STM32F4xx_HAL_Driver/Inc/stm32f4xx_ll_tim.h ****   * @}
1109:Drivers/STM32F4xx_HAL_Driver/Inc/stm32f4xx_ll_tim.h ****   */
1110:Drivers/STM32F4xx_HAL_Driver/Inc/stm32f4xx_ll_tim.h **** 
1111:Drivers/STM32F4xx_HAL_Driver/Inc/stm32f4xx_ll_tim.h **** /* Exported functions --------------------------------------------------------*/
1112:Drivers/STM32F4xx_HAL_Driver/Inc/stm32f4xx_ll_tim.h **** /** @defgroup TIM_LL_Exported_Functions TIM Exported Functions
1113:Drivers/STM32F4xx_HAL_Driver/Inc/stm32f4xx_ll_tim.h ****   * @{
1114:Drivers/STM32F4xx_HAL_Driver/Inc/stm32f4xx_ll_tim.h ****   */
1115:Drivers/STM32F4xx_HAL_Driver/Inc/stm32f4xx_ll_tim.h **** 
1116:Drivers/STM32F4xx_HAL_Driver/Inc/stm32f4xx_ll_tim.h **** /** @defgroup TIM_LL_EF_Time_Base Time Base configuration
1117:Drivers/STM32F4xx_HAL_Driver/Inc/stm32f4xx_ll_tim.h ****   * @{
1118:Drivers/STM32F4xx_HAL_Driver/Inc/stm32f4xx_ll_tim.h ****   */
1119:Drivers/STM32F4xx_HAL_Driver/Inc/stm32f4xx_ll_tim.h **** /**
1120:Drivers/STM32F4xx_HAL_Driver/Inc/stm32f4xx_ll_tim.h ****   * @brief  Enable timer counter.
1121:Drivers/STM32F4xx_HAL_Driver/Inc/stm32f4xx_ll_tim.h ****   * @rmtoll CR1          CEN           LL_TIM_EnableCounter
1122:Drivers/STM32F4xx_HAL_Driver/Inc/stm32f4xx_ll_tim.h ****   * @param  TIMx Timer instance
1123:Drivers/STM32F4xx_HAL_Driver/Inc/stm32f4xx_ll_tim.h ****   * @retval None
1124:Drivers/STM32F4xx_HAL_Driver/Inc/stm32f4xx_ll_tim.h ****   */
1125:Drivers/STM32F4xx_HAL_Driver/Inc/stm32f4xx_ll_tim.h **** __STATIC_INLINE void LL_TIM_EnableCounter(TIM_TypeDef *TIMx)
1126:Drivers/STM32F4xx_HAL_Driver/Inc/stm32f4xx_ll_tim.h **** {
1127:Drivers/STM32F4xx_HAL_Driver/Inc/stm32f4xx_ll_tim.h ****   SET_BIT(TIMx->CR1, TIM_CR1_CEN);
1128:Drivers/STM32F4xx_HAL_Driver/Inc/stm32f4xx_ll_tim.h **** }
1129:Drivers/STM32F4xx_HAL_Driver/Inc/stm32f4xx_ll_tim.h **** 
1130:Drivers/STM32F4xx_HAL_Driver/Inc/stm32f4xx_ll_tim.h **** /**
1131:Drivers/STM32F4xx_HAL_Driver/Inc/stm32f4xx_ll_tim.h ****   * @brief  Disable timer counter.
1132:Drivers/STM32F4xx_HAL_Driver/Inc/stm32f4xx_ll_tim.h ****   * @rmtoll CR1          CEN           LL_TIM_DisableCounter
1133:Drivers/STM32F4xx_HAL_Driver/Inc/stm32f4xx_ll_tim.h ****   * @param  TIMx Timer instance
1134:Drivers/STM32F4xx_HAL_Driver/Inc/stm32f4xx_ll_tim.h ****   * @retval None
1135:Drivers/STM32F4xx_HAL_Driver/Inc/stm32f4xx_ll_tim.h ****   */
1136:Drivers/STM32F4xx_HAL_Driver/Inc/stm32f4xx_ll_tim.h **** __STATIC_INLINE void LL_TIM_DisableCounter(TIM_TypeDef *TIMx)
1137:Drivers/STM32F4xx_HAL_Driver/Inc/stm32f4xx_ll_tim.h **** {
1138:Drivers/STM32F4xx_HAL_Driver/Inc/stm32f4xx_ll_tim.h ****   CLEAR_BIT(TIMx->CR1, TIM_CR1_CEN);
1139:Drivers/STM32F4xx_HAL_Driver/Inc/stm32f4xx_ll_tim.h **** }
1140:Drivers/STM32F4xx_HAL_Driver/Inc/stm32f4xx_ll_tim.h **** 
1141:Drivers/STM32F4xx_HAL_Driver/Inc/stm32f4xx_ll_tim.h **** /**
1142:Drivers/STM32F4xx_HAL_Driver/Inc/stm32f4xx_ll_tim.h ****   * @brief  Indicates whether the timer counter is enabled.
1143:Drivers/STM32F4xx_HAL_Driver/Inc/stm32f4xx_ll_tim.h ****   * @rmtoll CR1          CEN           LL_TIM_IsEnabledCounter
ARM GAS  /tmp/ccdh1ORM.s 			page 30


1144:Drivers/STM32F4xx_HAL_Driver/Inc/stm32f4xx_ll_tim.h ****   * @param  TIMx Timer instance
1145:Drivers/STM32F4xx_HAL_Driver/Inc/stm32f4xx_ll_tim.h ****   * @retval State of bit (1 or 0).
1146:Drivers/STM32F4xx_HAL_Driver/Inc/stm32f4xx_ll_tim.h ****   */
1147:Drivers/STM32F4xx_HAL_Driver/Inc/stm32f4xx_ll_tim.h **** __STATIC_INLINE uint32_t LL_TIM_IsEnabledCounter(TIM_TypeDef *TIMx)
1148:Drivers/STM32F4xx_HAL_Driver/Inc/stm32f4xx_ll_tim.h **** {
1149:Drivers/STM32F4xx_HAL_Driver/Inc/stm32f4xx_ll_tim.h ****   return ((READ_BIT(TIMx->CR1, TIM_CR1_CEN) == (TIM_CR1_CEN)) ? 1UL : 0UL);
1150:Drivers/STM32F4xx_HAL_Driver/Inc/stm32f4xx_ll_tim.h **** }
1151:Drivers/STM32F4xx_HAL_Driver/Inc/stm32f4xx_ll_tim.h **** 
1152:Drivers/STM32F4xx_HAL_Driver/Inc/stm32f4xx_ll_tim.h **** /**
1153:Drivers/STM32F4xx_HAL_Driver/Inc/stm32f4xx_ll_tim.h ****   * @brief  Enable update event generation.
1154:Drivers/STM32F4xx_HAL_Driver/Inc/stm32f4xx_ll_tim.h ****   * @rmtoll CR1          UDIS          LL_TIM_EnableUpdateEvent
1155:Drivers/STM32F4xx_HAL_Driver/Inc/stm32f4xx_ll_tim.h ****   * @param  TIMx Timer instance
1156:Drivers/STM32F4xx_HAL_Driver/Inc/stm32f4xx_ll_tim.h ****   * @retval None
1157:Drivers/STM32F4xx_HAL_Driver/Inc/stm32f4xx_ll_tim.h ****   */
1158:Drivers/STM32F4xx_HAL_Driver/Inc/stm32f4xx_ll_tim.h **** __STATIC_INLINE void LL_TIM_EnableUpdateEvent(TIM_TypeDef *TIMx)
1159:Drivers/STM32F4xx_HAL_Driver/Inc/stm32f4xx_ll_tim.h **** {
1160:Drivers/STM32F4xx_HAL_Driver/Inc/stm32f4xx_ll_tim.h ****   CLEAR_BIT(TIMx->CR1, TIM_CR1_UDIS);
1161:Drivers/STM32F4xx_HAL_Driver/Inc/stm32f4xx_ll_tim.h **** }
1162:Drivers/STM32F4xx_HAL_Driver/Inc/stm32f4xx_ll_tim.h **** 
1163:Drivers/STM32F4xx_HAL_Driver/Inc/stm32f4xx_ll_tim.h **** /**
1164:Drivers/STM32F4xx_HAL_Driver/Inc/stm32f4xx_ll_tim.h ****   * @brief  Disable update event generation.
1165:Drivers/STM32F4xx_HAL_Driver/Inc/stm32f4xx_ll_tim.h ****   * @rmtoll CR1          UDIS          LL_TIM_DisableUpdateEvent
1166:Drivers/STM32F4xx_HAL_Driver/Inc/stm32f4xx_ll_tim.h ****   * @param  TIMx Timer instance
1167:Drivers/STM32F4xx_HAL_Driver/Inc/stm32f4xx_ll_tim.h ****   * @retval None
1168:Drivers/STM32F4xx_HAL_Driver/Inc/stm32f4xx_ll_tim.h ****   */
1169:Drivers/STM32F4xx_HAL_Driver/Inc/stm32f4xx_ll_tim.h **** __STATIC_INLINE void LL_TIM_DisableUpdateEvent(TIM_TypeDef *TIMx)
1170:Drivers/STM32F4xx_HAL_Driver/Inc/stm32f4xx_ll_tim.h **** {
1171:Drivers/STM32F4xx_HAL_Driver/Inc/stm32f4xx_ll_tim.h ****   SET_BIT(TIMx->CR1, TIM_CR1_UDIS);
1172:Drivers/STM32F4xx_HAL_Driver/Inc/stm32f4xx_ll_tim.h **** }
1173:Drivers/STM32F4xx_HAL_Driver/Inc/stm32f4xx_ll_tim.h **** 
1174:Drivers/STM32F4xx_HAL_Driver/Inc/stm32f4xx_ll_tim.h **** /**
1175:Drivers/STM32F4xx_HAL_Driver/Inc/stm32f4xx_ll_tim.h ****   * @brief  Indicates whether update event generation is enabled.
1176:Drivers/STM32F4xx_HAL_Driver/Inc/stm32f4xx_ll_tim.h ****   * @rmtoll CR1          UDIS          LL_TIM_IsEnabledUpdateEvent
1177:Drivers/STM32F4xx_HAL_Driver/Inc/stm32f4xx_ll_tim.h ****   * @param  TIMx Timer instance
1178:Drivers/STM32F4xx_HAL_Driver/Inc/stm32f4xx_ll_tim.h ****   * @retval Inverted state of bit (0 or 1).
1179:Drivers/STM32F4xx_HAL_Driver/Inc/stm32f4xx_ll_tim.h ****   */
1180:Drivers/STM32F4xx_HAL_Driver/Inc/stm32f4xx_ll_tim.h **** __STATIC_INLINE uint32_t LL_TIM_IsEnabledUpdateEvent(TIM_TypeDef *TIMx)
1181:Drivers/STM32F4xx_HAL_Driver/Inc/stm32f4xx_ll_tim.h **** {
1182:Drivers/STM32F4xx_HAL_Driver/Inc/stm32f4xx_ll_tim.h ****   return ((READ_BIT(TIMx->CR1, TIM_CR1_UDIS) == (uint32_t)RESET) ? 1UL : 0UL);
1183:Drivers/STM32F4xx_HAL_Driver/Inc/stm32f4xx_ll_tim.h **** }
1184:Drivers/STM32F4xx_HAL_Driver/Inc/stm32f4xx_ll_tim.h **** 
1185:Drivers/STM32F4xx_HAL_Driver/Inc/stm32f4xx_ll_tim.h **** /**
1186:Drivers/STM32F4xx_HAL_Driver/Inc/stm32f4xx_ll_tim.h ****   * @brief  Set update event source
1187:Drivers/STM32F4xx_HAL_Driver/Inc/stm32f4xx_ll_tim.h ****   * @note Update event source set to LL_TIM_UPDATESOURCE_REGULAR: any of the following events
1188:Drivers/STM32F4xx_HAL_Driver/Inc/stm32f4xx_ll_tim.h ****   *       generate an update interrupt or DMA request if enabled:
1189:Drivers/STM32F4xx_HAL_Driver/Inc/stm32f4xx_ll_tim.h ****   *        - Counter overflow/underflow
1190:Drivers/STM32F4xx_HAL_Driver/Inc/stm32f4xx_ll_tim.h ****   *        - Setting the UG bit
1191:Drivers/STM32F4xx_HAL_Driver/Inc/stm32f4xx_ll_tim.h ****   *        - Update generation through the slave mode controller
1192:Drivers/STM32F4xx_HAL_Driver/Inc/stm32f4xx_ll_tim.h ****   * @note Update event source set to LL_TIM_UPDATESOURCE_COUNTER: only counter
1193:Drivers/STM32F4xx_HAL_Driver/Inc/stm32f4xx_ll_tim.h ****   *       overflow/underflow generates an update interrupt or DMA request if enabled.
1194:Drivers/STM32F4xx_HAL_Driver/Inc/stm32f4xx_ll_tim.h ****   * @rmtoll CR1          URS           LL_TIM_SetUpdateSource
1195:Drivers/STM32F4xx_HAL_Driver/Inc/stm32f4xx_ll_tim.h ****   * @param  TIMx Timer instance
1196:Drivers/STM32F4xx_HAL_Driver/Inc/stm32f4xx_ll_tim.h ****   * @param  UpdateSource This parameter can be one of the following values:
1197:Drivers/STM32F4xx_HAL_Driver/Inc/stm32f4xx_ll_tim.h ****   *         @arg @ref LL_TIM_UPDATESOURCE_REGULAR
1198:Drivers/STM32F4xx_HAL_Driver/Inc/stm32f4xx_ll_tim.h ****   *         @arg @ref LL_TIM_UPDATESOURCE_COUNTER
1199:Drivers/STM32F4xx_HAL_Driver/Inc/stm32f4xx_ll_tim.h ****   * @retval None
1200:Drivers/STM32F4xx_HAL_Driver/Inc/stm32f4xx_ll_tim.h ****   */
ARM GAS  /tmp/ccdh1ORM.s 			page 31


1201:Drivers/STM32F4xx_HAL_Driver/Inc/stm32f4xx_ll_tim.h **** __STATIC_INLINE void LL_TIM_SetUpdateSource(TIM_TypeDef *TIMx, uint32_t UpdateSource)
1202:Drivers/STM32F4xx_HAL_Driver/Inc/stm32f4xx_ll_tim.h **** {
1203:Drivers/STM32F4xx_HAL_Driver/Inc/stm32f4xx_ll_tim.h ****   MODIFY_REG(TIMx->CR1, TIM_CR1_URS, UpdateSource);
1204:Drivers/STM32F4xx_HAL_Driver/Inc/stm32f4xx_ll_tim.h **** }
1205:Drivers/STM32F4xx_HAL_Driver/Inc/stm32f4xx_ll_tim.h **** 
1206:Drivers/STM32F4xx_HAL_Driver/Inc/stm32f4xx_ll_tim.h **** /**
1207:Drivers/STM32F4xx_HAL_Driver/Inc/stm32f4xx_ll_tim.h ****   * @brief  Get actual event update source
1208:Drivers/STM32F4xx_HAL_Driver/Inc/stm32f4xx_ll_tim.h ****   * @rmtoll CR1          URS           LL_TIM_GetUpdateSource
1209:Drivers/STM32F4xx_HAL_Driver/Inc/stm32f4xx_ll_tim.h ****   * @param  TIMx Timer instance
1210:Drivers/STM32F4xx_HAL_Driver/Inc/stm32f4xx_ll_tim.h ****   * @retval Returned value can be one of the following values:
1211:Drivers/STM32F4xx_HAL_Driver/Inc/stm32f4xx_ll_tim.h ****   *         @arg @ref LL_TIM_UPDATESOURCE_REGULAR
1212:Drivers/STM32F4xx_HAL_Driver/Inc/stm32f4xx_ll_tim.h ****   *         @arg @ref LL_TIM_UPDATESOURCE_COUNTER
1213:Drivers/STM32F4xx_HAL_Driver/Inc/stm32f4xx_ll_tim.h ****   */
1214:Drivers/STM32F4xx_HAL_Driver/Inc/stm32f4xx_ll_tim.h **** __STATIC_INLINE uint32_t LL_TIM_GetUpdateSource(TIM_TypeDef *TIMx)
1215:Drivers/STM32F4xx_HAL_Driver/Inc/stm32f4xx_ll_tim.h **** {
1216:Drivers/STM32F4xx_HAL_Driver/Inc/stm32f4xx_ll_tim.h ****   return (uint32_t)(READ_BIT(TIMx->CR1, TIM_CR1_URS));
1217:Drivers/STM32F4xx_HAL_Driver/Inc/stm32f4xx_ll_tim.h **** }
1218:Drivers/STM32F4xx_HAL_Driver/Inc/stm32f4xx_ll_tim.h **** 
1219:Drivers/STM32F4xx_HAL_Driver/Inc/stm32f4xx_ll_tim.h **** /**
1220:Drivers/STM32F4xx_HAL_Driver/Inc/stm32f4xx_ll_tim.h ****   * @brief  Set one pulse mode (one shot v.s. repetitive).
1221:Drivers/STM32F4xx_HAL_Driver/Inc/stm32f4xx_ll_tim.h ****   * @rmtoll CR1          OPM           LL_TIM_SetOnePulseMode
1222:Drivers/STM32F4xx_HAL_Driver/Inc/stm32f4xx_ll_tim.h ****   * @param  TIMx Timer instance
1223:Drivers/STM32F4xx_HAL_Driver/Inc/stm32f4xx_ll_tim.h ****   * @param  OnePulseMode This parameter can be one of the following values:
1224:Drivers/STM32F4xx_HAL_Driver/Inc/stm32f4xx_ll_tim.h ****   *         @arg @ref LL_TIM_ONEPULSEMODE_SINGLE
1225:Drivers/STM32F4xx_HAL_Driver/Inc/stm32f4xx_ll_tim.h ****   *         @arg @ref LL_TIM_ONEPULSEMODE_REPETITIVE
1226:Drivers/STM32F4xx_HAL_Driver/Inc/stm32f4xx_ll_tim.h ****   * @retval None
1227:Drivers/STM32F4xx_HAL_Driver/Inc/stm32f4xx_ll_tim.h ****   */
1228:Drivers/STM32F4xx_HAL_Driver/Inc/stm32f4xx_ll_tim.h **** __STATIC_INLINE void LL_TIM_SetOnePulseMode(TIM_TypeDef *TIMx, uint32_t OnePulseMode)
1229:Drivers/STM32F4xx_HAL_Driver/Inc/stm32f4xx_ll_tim.h **** {
1230:Drivers/STM32F4xx_HAL_Driver/Inc/stm32f4xx_ll_tim.h ****   MODIFY_REG(TIMx->CR1, TIM_CR1_OPM, OnePulseMode);
1231:Drivers/STM32F4xx_HAL_Driver/Inc/stm32f4xx_ll_tim.h **** }
1232:Drivers/STM32F4xx_HAL_Driver/Inc/stm32f4xx_ll_tim.h **** 
1233:Drivers/STM32F4xx_HAL_Driver/Inc/stm32f4xx_ll_tim.h **** /**
1234:Drivers/STM32F4xx_HAL_Driver/Inc/stm32f4xx_ll_tim.h ****   * @brief  Get actual one pulse mode.
1235:Drivers/STM32F4xx_HAL_Driver/Inc/stm32f4xx_ll_tim.h ****   * @rmtoll CR1          OPM           LL_TIM_GetOnePulseMode
1236:Drivers/STM32F4xx_HAL_Driver/Inc/stm32f4xx_ll_tim.h ****   * @param  TIMx Timer instance
1237:Drivers/STM32F4xx_HAL_Driver/Inc/stm32f4xx_ll_tim.h ****   * @retval Returned value can be one of the following values:
1238:Drivers/STM32F4xx_HAL_Driver/Inc/stm32f4xx_ll_tim.h ****   *         @arg @ref LL_TIM_ONEPULSEMODE_SINGLE
1239:Drivers/STM32F4xx_HAL_Driver/Inc/stm32f4xx_ll_tim.h ****   *         @arg @ref LL_TIM_ONEPULSEMODE_REPETITIVE
1240:Drivers/STM32F4xx_HAL_Driver/Inc/stm32f4xx_ll_tim.h ****   */
1241:Drivers/STM32F4xx_HAL_Driver/Inc/stm32f4xx_ll_tim.h **** __STATIC_INLINE uint32_t LL_TIM_GetOnePulseMode(TIM_TypeDef *TIMx)
1242:Drivers/STM32F4xx_HAL_Driver/Inc/stm32f4xx_ll_tim.h **** {
1243:Drivers/STM32F4xx_HAL_Driver/Inc/stm32f4xx_ll_tim.h ****   return (uint32_t)(READ_BIT(TIMx->CR1, TIM_CR1_OPM));
1244:Drivers/STM32F4xx_HAL_Driver/Inc/stm32f4xx_ll_tim.h **** }
1245:Drivers/STM32F4xx_HAL_Driver/Inc/stm32f4xx_ll_tim.h **** 
1246:Drivers/STM32F4xx_HAL_Driver/Inc/stm32f4xx_ll_tim.h **** /**
1247:Drivers/STM32F4xx_HAL_Driver/Inc/stm32f4xx_ll_tim.h ****   * @brief  Set the timer counter counting mode.
1248:Drivers/STM32F4xx_HAL_Driver/Inc/stm32f4xx_ll_tim.h ****   * @note Macro IS_TIM_COUNTER_MODE_SELECT_INSTANCE(TIMx) can be used to
1249:Drivers/STM32F4xx_HAL_Driver/Inc/stm32f4xx_ll_tim.h ****   *       check whether or not the counter mode selection feature is supported
1250:Drivers/STM32F4xx_HAL_Driver/Inc/stm32f4xx_ll_tim.h ****   *       by a timer instance.
1251:Drivers/STM32F4xx_HAL_Driver/Inc/stm32f4xx_ll_tim.h ****   * @note Switching from Center Aligned counter mode to Edge counter mode (or reverse)
1252:Drivers/STM32F4xx_HAL_Driver/Inc/stm32f4xx_ll_tim.h ****   *       requires a timer reset to avoid unexpected direction
1253:Drivers/STM32F4xx_HAL_Driver/Inc/stm32f4xx_ll_tim.h ****   *       due to DIR bit readonly in center aligned mode.
1254:Drivers/STM32F4xx_HAL_Driver/Inc/stm32f4xx_ll_tim.h ****   * @rmtoll CR1          DIR           LL_TIM_SetCounterMode\n
1255:Drivers/STM32F4xx_HAL_Driver/Inc/stm32f4xx_ll_tim.h ****   *         CR1          CMS           LL_TIM_SetCounterMode
1256:Drivers/STM32F4xx_HAL_Driver/Inc/stm32f4xx_ll_tim.h ****   * @param  TIMx Timer instance
1257:Drivers/STM32F4xx_HAL_Driver/Inc/stm32f4xx_ll_tim.h ****   * @param  CounterMode This parameter can be one of the following values:
ARM GAS  /tmp/ccdh1ORM.s 			page 32


1258:Drivers/STM32F4xx_HAL_Driver/Inc/stm32f4xx_ll_tim.h ****   *         @arg @ref LL_TIM_COUNTERMODE_UP
1259:Drivers/STM32F4xx_HAL_Driver/Inc/stm32f4xx_ll_tim.h ****   *         @arg @ref LL_TIM_COUNTERMODE_DOWN
1260:Drivers/STM32F4xx_HAL_Driver/Inc/stm32f4xx_ll_tim.h ****   *         @arg @ref LL_TIM_COUNTERMODE_CENTER_UP
1261:Drivers/STM32F4xx_HAL_Driver/Inc/stm32f4xx_ll_tim.h ****   *         @arg @ref LL_TIM_COUNTERMODE_CENTER_DOWN
1262:Drivers/STM32F4xx_HAL_Driver/Inc/stm32f4xx_ll_tim.h ****   *         @arg @ref LL_TIM_COUNTERMODE_CENTER_UP_DOWN
1263:Drivers/STM32F4xx_HAL_Driver/Inc/stm32f4xx_ll_tim.h ****   * @retval None
1264:Drivers/STM32F4xx_HAL_Driver/Inc/stm32f4xx_ll_tim.h ****   */
1265:Drivers/STM32F4xx_HAL_Driver/Inc/stm32f4xx_ll_tim.h **** __STATIC_INLINE void LL_TIM_SetCounterMode(TIM_TypeDef *TIMx, uint32_t CounterMode)
1266:Drivers/STM32F4xx_HAL_Driver/Inc/stm32f4xx_ll_tim.h **** {
1267:Drivers/STM32F4xx_HAL_Driver/Inc/stm32f4xx_ll_tim.h ****   MODIFY_REG(TIMx->CR1, (TIM_CR1_DIR | TIM_CR1_CMS), CounterMode);
1268:Drivers/STM32F4xx_HAL_Driver/Inc/stm32f4xx_ll_tim.h **** }
1269:Drivers/STM32F4xx_HAL_Driver/Inc/stm32f4xx_ll_tim.h **** 
1270:Drivers/STM32F4xx_HAL_Driver/Inc/stm32f4xx_ll_tim.h **** /**
1271:Drivers/STM32F4xx_HAL_Driver/Inc/stm32f4xx_ll_tim.h ****   * @brief  Get actual counter mode.
1272:Drivers/STM32F4xx_HAL_Driver/Inc/stm32f4xx_ll_tim.h ****   * @note Macro IS_TIM_COUNTER_MODE_SELECT_INSTANCE(TIMx) can be used to
1273:Drivers/STM32F4xx_HAL_Driver/Inc/stm32f4xx_ll_tim.h ****   *       check whether or not the counter mode selection feature is supported
1274:Drivers/STM32F4xx_HAL_Driver/Inc/stm32f4xx_ll_tim.h ****   *       by a timer instance.
1275:Drivers/STM32F4xx_HAL_Driver/Inc/stm32f4xx_ll_tim.h ****   * @rmtoll CR1          DIR           LL_TIM_GetCounterMode\n
1276:Drivers/STM32F4xx_HAL_Driver/Inc/stm32f4xx_ll_tim.h ****   *         CR1          CMS           LL_TIM_GetCounterMode
1277:Drivers/STM32F4xx_HAL_Driver/Inc/stm32f4xx_ll_tim.h ****   * @param  TIMx Timer instance
1278:Drivers/STM32F4xx_HAL_Driver/Inc/stm32f4xx_ll_tim.h ****   * @retval Returned value can be one of the following values:
1279:Drivers/STM32F4xx_HAL_Driver/Inc/stm32f4xx_ll_tim.h ****   *         @arg @ref LL_TIM_COUNTERMODE_UP
1280:Drivers/STM32F4xx_HAL_Driver/Inc/stm32f4xx_ll_tim.h ****   *         @arg @ref LL_TIM_COUNTERMODE_DOWN
1281:Drivers/STM32F4xx_HAL_Driver/Inc/stm32f4xx_ll_tim.h ****   *         @arg @ref LL_TIM_COUNTERMODE_CENTER_UP
1282:Drivers/STM32F4xx_HAL_Driver/Inc/stm32f4xx_ll_tim.h ****   *         @arg @ref LL_TIM_COUNTERMODE_CENTER_DOWN
1283:Drivers/STM32F4xx_HAL_Driver/Inc/stm32f4xx_ll_tim.h ****   *         @arg @ref LL_TIM_COUNTERMODE_CENTER_UP_DOWN
1284:Drivers/STM32F4xx_HAL_Driver/Inc/stm32f4xx_ll_tim.h ****   */
1285:Drivers/STM32F4xx_HAL_Driver/Inc/stm32f4xx_ll_tim.h **** __STATIC_INLINE uint32_t LL_TIM_GetCounterMode(TIM_TypeDef *TIMx)
1286:Drivers/STM32F4xx_HAL_Driver/Inc/stm32f4xx_ll_tim.h **** {
1287:Drivers/STM32F4xx_HAL_Driver/Inc/stm32f4xx_ll_tim.h ****   uint32_t counter_mode;
1288:Drivers/STM32F4xx_HAL_Driver/Inc/stm32f4xx_ll_tim.h **** 
1289:Drivers/STM32F4xx_HAL_Driver/Inc/stm32f4xx_ll_tim.h ****   counter_mode = (uint32_t)(READ_BIT(TIMx->CR1, TIM_CR1_CMS));
1290:Drivers/STM32F4xx_HAL_Driver/Inc/stm32f4xx_ll_tim.h **** 
1291:Drivers/STM32F4xx_HAL_Driver/Inc/stm32f4xx_ll_tim.h ****   if (counter_mode == 0U)
1292:Drivers/STM32F4xx_HAL_Driver/Inc/stm32f4xx_ll_tim.h ****   {
1293:Drivers/STM32F4xx_HAL_Driver/Inc/stm32f4xx_ll_tim.h ****     counter_mode = (uint32_t)(READ_BIT(TIMx->CR1, TIM_CR1_DIR));
1294:Drivers/STM32F4xx_HAL_Driver/Inc/stm32f4xx_ll_tim.h ****   }
1295:Drivers/STM32F4xx_HAL_Driver/Inc/stm32f4xx_ll_tim.h **** 
1296:Drivers/STM32F4xx_HAL_Driver/Inc/stm32f4xx_ll_tim.h ****   return counter_mode;
1297:Drivers/STM32F4xx_HAL_Driver/Inc/stm32f4xx_ll_tim.h **** }
1298:Drivers/STM32F4xx_HAL_Driver/Inc/stm32f4xx_ll_tim.h **** 
1299:Drivers/STM32F4xx_HAL_Driver/Inc/stm32f4xx_ll_tim.h **** /**
1300:Drivers/STM32F4xx_HAL_Driver/Inc/stm32f4xx_ll_tim.h ****   * @brief  Enable auto-reload (ARR) preload.
1301:Drivers/STM32F4xx_HAL_Driver/Inc/stm32f4xx_ll_tim.h ****   * @rmtoll CR1          ARPE          LL_TIM_EnableARRPreload
1302:Drivers/STM32F4xx_HAL_Driver/Inc/stm32f4xx_ll_tim.h ****   * @param  TIMx Timer instance
1303:Drivers/STM32F4xx_HAL_Driver/Inc/stm32f4xx_ll_tim.h ****   * @retval None
1304:Drivers/STM32F4xx_HAL_Driver/Inc/stm32f4xx_ll_tim.h ****   */
1305:Drivers/STM32F4xx_HAL_Driver/Inc/stm32f4xx_ll_tim.h **** __STATIC_INLINE void LL_TIM_EnableARRPreload(TIM_TypeDef *TIMx)
1306:Drivers/STM32F4xx_HAL_Driver/Inc/stm32f4xx_ll_tim.h **** {
1307:Drivers/STM32F4xx_HAL_Driver/Inc/stm32f4xx_ll_tim.h ****   SET_BIT(TIMx->CR1, TIM_CR1_ARPE);
1308:Drivers/STM32F4xx_HAL_Driver/Inc/stm32f4xx_ll_tim.h **** }
1309:Drivers/STM32F4xx_HAL_Driver/Inc/stm32f4xx_ll_tim.h **** 
1310:Drivers/STM32F4xx_HAL_Driver/Inc/stm32f4xx_ll_tim.h **** /**
1311:Drivers/STM32F4xx_HAL_Driver/Inc/stm32f4xx_ll_tim.h ****   * @brief  Disable auto-reload (ARR) preload.
1312:Drivers/STM32F4xx_HAL_Driver/Inc/stm32f4xx_ll_tim.h ****   * @rmtoll CR1          ARPE          LL_TIM_DisableARRPreload
1313:Drivers/STM32F4xx_HAL_Driver/Inc/stm32f4xx_ll_tim.h ****   * @param  TIMx Timer instance
1314:Drivers/STM32F4xx_HAL_Driver/Inc/stm32f4xx_ll_tim.h ****   * @retval None
ARM GAS  /tmp/ccdh1ORM.s 			page 33


1315:Drivers/STM32F4xx_HAL_Driver/Inc/stm32f4xx_ll_tim.h ****   */
1316:Drivers/STM32F4xx_HAL_Driver/Inc/stm32f4xx_ll_tim.h **** __STATIC_INLINE void LL_TIM_DisableARRPreload(TIM_TypeDef *TIMx)
1317:Drivers/STM32F4xx_HAL_Driver/Inc/stm32f4xx_ll_tim.h **** {
1318:Drivers/STM32F4xx_HAL_Driver/Inc/stm32f4xx_ll_tim.h ****   CLEAR_BIT(TIMx->CR1, TIM_CR1_ARPE);
1319:Drivers/STM32F4xx_HAL_Driver/Inc/stm32f4xx_ll_tim.h **** }
1320:Drivers/STM32F4xx_HAL_Driver/Inc/stm32f4xx_ll_tim.h **** 
1321:Drivers/STM32F4xx_HAL_Driver/Inc/stm32f4xx_ll_tim.h **** /**
1322:Drivers/STM32F4xx_HAL_Driver/Inc/stm32f4xx_ll_tim.h ****   * @brief  Indicates whether auto-reload (ARR) preload is enabled.
1323:Drivers/STM32F4xx_HAL_Driver/Inc/stm32f4xx_ll_tim.h ****   * @rmtoll CR1          ARPE          LL_TIM_IsEnabledARRPreload
1324:Drivers/STM32F4xx_HAL_Driver/Inc/stm32f4xx_ll_tim.h ****   * @param  TIMx Timer instance
1325:Drivers/STM32F4xx_HAL_Driver/Inc/stm32f4xx_ll_tim.h ****   * @retval State of bit (1 or 0).
1326:Drivers/STM32F4xx_HAL_Driver/Inc/stm32f4xx_ll_tim.h ****   */
1327:Drivers/STM32F4xx_HAL_Driver/Inc/stm32f4xx_ll_tim.h **** __STATIC_INLINE uint32_t LL_TIM_IsEnabledARRPreload(TIM_TypeDef *TIMx)
1328:Drivers/STM32F4xx_HAL_Driver/Inc/stm32f4xx_ll_tim.h **** {
1329:Drivers/STM32F4xx_HAL_Driver/Inc/stm32f4xx_ll_tim.h ****   return ((READ_BIT(TIMx->CR1, TIM_CR1_ARPE) == (TIM_CR1_ARPE)) ? 1UL : 0UL);
1330:Drivers/STM32F4xx_HAL_Driver/Inc/stm32f4xx_ll_tim.h **** }
1331:Drivers/STM32F4xx_HAL_Driver/Inc/stm32f4xx_ll_tim.h **** 
1332:Drivers/STM32F4xx_HAL_Driver/Inc/stm32f4xx_ll_tim.h **** /**
1333:Drivers/STM32F4xx_HAL_Driver/Inc/stm32f4xx_ll_tim.h ****   * @brief  Set the division ratio between the timer clock  and the sampling clock used by the dead
1334:Drivers/STM32F4xx_HAL_Driver/Inc/stm32f4xx_ll_tim.h ****   *         (when supported) and the digital filters.
1335:Drivers/STM32F4xx_HAL_Driver/Inc/stm32f4xx_ll_tim.h ****   * @note Macro IS_TIM_CLOCK_DIVISION_INSTANCE(TIMx) can be used to check
1336:Drivers/STM32F4xx_HAL_Driver/Inc/stm32f4xx_ll_tim.h ****   *       whether or not the clock division feature is supported by the timer
1337:Drivers/STM32F4xx_HAL_Driver/Inc/stm32f4xx_ll_tim.h ****   *       instance.
1338:Drivers/STM32F4xx_HAL_Driver/Inc/stm32f4xx_ll_tim.h ****   * @rmtoll CR1          CKD           LL_TIM_SetClockDivision
1339:Drivers/STM32F4xx_HAL_Driver/Inc/stm32f4xx_ll_tim.h ****   * @param  TIMx Timer instance
1340:Drivers/STM32F4xx_HAL_Driver/Inc/stm32f4xx_ll_tim.h ****   * @param  ClockDivision This parameter can be one of the following values:
1341:Drivers/STM32F4xx_HAL_Driver/Inc/stm32f4xx_ll_tim.h ****   *         @arg @ref LL_TIM_CLOCKDIVISION_DIV1
1342:Drivers/STM32F4xx_HAL_Driver/Inc/stm32f4xx_ll_tim.h ****   *         @arg @ref LL_TIM_CLOCKDIVISION_DIV2
1343:Drivers/STM32F4xx_HAL_Driver/Inc/stm32f4xx_ll_tim.h ****   *         @arg @ref LL_TIM_CLOCKDIVISION_DIV4
1344:Drivers/STM32F4xx_HAL_Driver/Inc/stm32f4xx_ll_tim.h ****   * @retval None
1345:Drivers/STM32F4xx_HAL_Driver/Inc/stm32f4xx_ll_tim.h ****   */
1346:Drivers/STM32F4xx_HAL_Driver/Inc/stm32f4xx_ll_tim.h **** __STATIC_INLINE void LL_TIM_SetClockDivision(TIM_TypeDef *TIMx, uint32_t ClockDivision)
1347:Drivers/STM32F4xx_HAL_Driver/Inc/stm32f4xx_ll_tim.h **** {
1348:Drivers/STM32F4xx_HAL_Driver/Inc/stm32f4xx_ll_tim.h ****   MODIFY_REG(TIMx->CR1, TIM_CR1_CKD, ClockDivision);
1349:Drivers/STM32F4xx_HAL_Driver/Inc/stm32f4xx_ll_tim.h **** }
1350:Drivers/STM32F4xx_HAL_Driver/Inc/stm32f4xx_ll_tim.h **** 
1351:Drivers/STM32F4xx_HAL_Driver/Inc/stm32f4xx_ll_tim.h **** /**
1352:Drivers/STM32F4xx_HAL_Driver/Inc/stm32f4xx_ll_tim.h ****   * @brief  Get the actual division ratio between the timer clock  and the sampling clock used by t
1353:Drivers/STM32F4xx_HAL_Driver/Inc/stm32f4xx_ll_tim.h ****   *         generators (when supported) and the digital filters.
1354:Drivers/STM32F4xx_HAL_Driver/Inc/stm32f4xx_ll_tim.h ****   * @note Macro IS_TIM_CLOCK_DIVISION_INSTANCE(TIMx) can be used to check
1355:Drivers/STM32F4xx_HAL_Driver/Inc/stm32f4xx_ll_tim.h ****   *       whether or not the clock division feature is supported by the timer
1356:Drivers/STM32F4xx_HAL_Driver/Inc/stm32f4xx_ll_tim.h ****   *       instance.
1357:Drivers/STM32F4xx_HAL_Driver/Inc/stm32f4xx_ll_tim.h ****   * @rmtoll CR1          CKD           LL_TIM_GetClockDivision
1358:Drivers/STM32F4xx_HAL_Driver/Inc/stm32f4xx_ll_tim.h ****   * @param  TIMx Timer instance
1359:Drivers/STM32F4xx_HAL_Driver/Inc/stm32f4xx_ll_tim.h ****   * @retval Returned value can be one of the following values:
1360:Drivers/STM32F4xx_HAL_Driver/Inc/stm32f4xx_ll_tim.h ****   *         @arg @ref LL_TIM_CLOCKDIVISION_DIV1
1361:Drivers/STM32F4xx_HAL_Driver/Inc/stm32f4xx_ll_tim.h ****   *         @arg @ref LL_TIM_CLOCKDIVISION_DIV2
1362:Drivers/STM32F4xx_HAL_Driver/Inc/stm32f4xx_ll_tim.h ****   *         @arg @ref LL_TIM_CLOCKDIVISION_DIV4
1363:Drivers/STM32F4xx_HAL_Driver/Inc/stm32f4xx_ll_tim.h ****   */
1364:Drivers/STM32F4xx_HAL_Driver/Inc/stm32f4xx_ll_tim.h **** __STATIC_INLINE uint32_t LL_TIM_GetClockDivision(TIM_TypeDef *TIMx)
1365:Drivers/STM32F4xx_HAL_Driver/Inc/stm32f4xx_ll_tim.h **** {
1366:Drivers/STM32F4xx_HAL_Driver/Inc/stm32f4xx_ll_tim.h ****   return (uint32_t)(READ_BIT(TIMx->CR1, TIM_CR1_CKD));
1367:Drivers/STM32F4xx_HAL_Driver/Inc/stm32f4xx_ll_tim.h **** }
1368:Drivers/STM32F4xx_HAL_Driver/Inc/stm32f4xx_ll_tim.h **** 
1369:Drivers/STM32F4xx_HAL_Driver/Inc/stm32f4xx_ll_tim.h **** /**
1370:Drivers/STM32F4xx_HAL_Driver/Inc/stm32f4xx_ll_tim.h ****   * @brief  Set the counter value.
1371:Drivers/STM32F4xx_HAL_Driver/Inc/stm32f4xx_ll_tim.h ****   * @note Macro IS_TIM_32B_COUNTER_INSTANCE(TIMx) can be used to check
ARM GAS  /tmp/ccdh1ORM.s 			page 34


1372:Drivers/STM32F4xx_HAL_Driver/Inc/stm32f4xx_ll_tim.h ****   *       whether or not a timer instance supports a 32 bits counter.
1373:Drivers/STM32F4xx_HAL_Driver/Inc/stm32f4xx_ll_tim.h ****   * @rmtoll CNT          CNT           LL_TIM_SetCounter
1374:Drivers/STM32F4xx_HAL_Driver/Inc/stm32f4xx_ll_tim.h ****   * @param  TIMx Timer instance
1375:Drivers/STM32F4xx_HAL_Driver/Inc/stm32f4xx_ll_tim.h ****   * @param  Counter Counter value (between Min_Data=0 and Max_Data=0xFFFF or 0xFFFFFFFF)
1376:Drivers/STM32F4xx_HAL_Driver/Inc/stm32f4xx_ll_tim.h ****   * @retval None
1377:Drivers/STM32F4xx_HAL_Driver/Inc/stm32f4xx_ll_tim.h ****   */
1378:Drivers/STM32F4xx_HAL_Driver/Inc/stm32f4xx_ll_tim.h **** __STATIC_INLINE void LL_TIM_SetCounter(TIM_TypeDef *TIMx, uint32_t Counter)
1379:Drivers/STM32F4xx_HAL_Driver/Inc/stm32f4xx_ll_tim.h **** {
1380:Drivers/STM32F4xx_HAL_Driver/Inc/stm32f4xx_ll_tim.h ****   WRITE_REG(TIMx->CNT, Counter);
1381:Drivers/STM32F4xx_HAL_Driver/Inc/stm32f4xx_ll_tim.h **** }
1382:Drivers/STM32F4xx_HAL_Driver/Inc/stm32f4xx_ll_tim.h **** 
1383:Drivers/STM32F4xx_HAL_Driver/Inc/stm32f4xx_ll_tim.h **** /**
1384:Drivers/STM32F4xx_HAL_Driver/Inc/stm32f4xx_ll_tim.h ****   * @brief  Get the counter value.
1385:Drivers/STM32F4xx_HAL_Driver/Inc/stm32f4xx_ll_tim.h ****   * @note Macro IS_TIM_32B_COUNTER_INSTANCE(TIMx) can be used to check
1386:Drivers/STM32F4xx_HAL_Driver/Inc/stm32f4xx_ll_tim.h ****   *       whether or not a timer instance supports a 32 bits counter.
1387:Drivers/STM32F4xx_HAL_Driver/Inc/stm32f4xx_ll_tim.h ****   * @rmtoll CNT          CNT           LL_TIM_GetCounter
1388:Drivers/STM32F4xx_HAL_Driver/Inc/stm32f4xx_ll_tim.h ****   * @param  TIMx Timer instance
1389:Drivers/STM32F4xx_HAL_Driver/Inc/stm32f4xx_ll_tim.h ****   * @retval Counter value (between Min_Data=0 and Max_Data=0xFFFF or 0xFFFFFFFF)
1390:Drivers/STM32F4xx_HAL_Driver/Inc/stm32f4xx_ll_tim.h ****   */
1391:Drivers/STM32F4xx_HAL_Driver/Inc/stm32f4xx_ll_tim.h **** __STATIC_INLINE uint32_t LL_TIM_GetCounter(TIM_TypeDef *TIMx)
1392:Drivers/STM32F4xx_HAL_Driver/Inc/stm32f4xx_ll_tim.h **** {
1393:Drivers/STM32F4xx_HAL_Driver/Inc/stm32f4xx_ll_tim.h ****   return (uint32_t)(READ_REG(TIMx->CNT));
 448              		.loc 2 1393 0
 449 000a 9D4B     		ldr	r3, .L55+8
 450 000c 586A     		ldr	r0, [r3, #36]
 451              	.LVL25:
 452              	.LBE12:
 453              	.LBE11:
  72:Core/Src/game.c ****     /* Seeding RNG */
  73:Core/Src/game.c ****     srand(LL_TIM_GetCounter(TIM4));
 454              		.loc 1 73 0
 455 000e FFF7FEFF 		bl	srand
 456              	.LVL26:
  74:Core/Src/game.c **** 
  75:Core/Src/game.c **** 
  76:Core/Src/game.c ****         /* VARIABLES */
  77:Core/Src/game.c ****     /* for the display */
  78:Core/Src/game.c ****     char charScore[6];
  79:Core/Src/game.c ****     char charNbDeletedLines[3];
  80:Core/Src/game.c ****     int timeDisplay  = 0;
  81:Core/Src/game.c ****     int startDisplay = 0;
  82:Core/Src/game.c ****     /* for the game */
  83:Core/Src/game.c ****     int score          = 0;
  84:Core/Src/game.c ****     int nbDeletedLines = 0;
  85:Core/Src/game.c ****     int nextPiece      = rand()%7;      // next tetromino
 457              		.loc 1 85 0
 458 0012 FFF7FEFF 		bl	rand
 459              	.LVL27:
 460 0016 9B4C     		ldr	r4, .L55+12
 461 0018 84FB0038 		smull	r3, r8, r4, r0
 462 001c 08EB0003 		add	r3, r8, r0
 463 0020 4FEAE078 		asr	r8, r0, #31
 464 0024 C8EBA308 		rsb	r8, r8, r3, asr #2
 465 0028 C8EBC808 		rsb	r8, r8, r8, lsl #3
 466 002c A0EB0808 		sub	r8, r0, r8
 467              	.LVL28:
  86:Core/Src/game.c ****     int rythm          = INITIAL_RYTHM; // falling rythm of the tetromino
ARM GAS  /tmp/ccdh1ORM.s 			page 35


  87:Core/Src/game.c ****     int speedUpCounter = 0;             // counting to know when reduce the rythm
  88:Core/Src/game.c ****     
  89:Core/Src/game.c ****     /* game area display */
  90:Core/Src/game.c ****     fillScreen(BLACK);
 468              		.loc 1 90 0
 469 0030 0020     		movs	r0, #0
 470 0032 FFF7FEFF 		bl	fillScreen
 471              	.LVL29:
  91:Core/Src/game.c ****     printBorders();
 472              		.loc 1 91 0
 473 0036 FFF7FEFF 		bl	printBorders
 474              	.LVL30:
  92:Core/Src/game.c **** 
  93:Core/Src/game.c ****     /* score display */
  94:Core/Src/game.c ****     DrawText("Score: ", 140, 150, WHITE, 2, BLACK);
 475              		.loc 1 94 0
 476 003a 0025     		movs	r5, #0
 477 003c 0195     		str	r5, [sp, #4]
 478 003e 0223     		movs	r3, #2
 479 0040 0093     		str	r3, [sp]
 480 0042 4FF6FF73 		movw	r3, #65535
 481 0046 9622     		movs	r2, #150
 482 0048 8C21     		movs	r1, #140
 483 004a 8F48     		ldr	r0, .L55+16
 484 004c FFF7FEFF 		bl	DrawText
 485              	.LVL31:
  95:Core/Src/game.c ****     displayScore(score);
 486              		.loc 1 95 0
 487 0050 2846     		mov	r0, r5
 488 0052 FFF7FEFF 		bl	displayScore
 489              	.LVL32:
  96:Core/Src/game.c **** 
  97:Core/Src/game.c ****     /* initializing the game */
  98:Core/Src/game.c ****     initBoard(&board);
 490              		.loc 1 98 0
 491 0056 8D4E     		ldr	r6, .L55+20
 492 0058 3046     		mov	r0, r6
 493 005a FFF7FEFF 		bl	initBoard
 494              	.LVL33:
  99:Core/Src/game.c **** 
 100:Core/Src/game.c ****     /* starting the game */
 101:Core/Src/game.c ****     initPiece(&piece, rand()%7, 0);
 495              		.loc 1 101 0
 496 005e FFF7FEFF 		bl	rand
 497              	.LVL34:
 498 0062 84FB0034 		smull	r3, r4, r4, r0
 499 0066 0444     		add	r4, r4, r0
 500 0068 C317     		asrs	r3, r0, #31
 501 006a C3EBA403 		rsb	r3, r3, r4, asr #2
 502 006e C3EBC303 		rsb	r3, r3, r3, lsl #3
 503 0072 874C     		ldr	r4, .L55+24
 504 0074 2A46     		mov	r2, r5
 505 0076 C11A     		subs	r1, r0, r3
 506 0078 2046     		mov	r0, r4
 507 007a FFF7FEFF 		bl	initPiece
 508              	.LVL35:
 102:Core/Src/game.c ****     newPiece(&board, &piece);
ARM GAS  /tmp/ccdh1ORM.s 			page 36


 509              		.loc 1 102 0
 510 007e 2146     		mov	r1, r4
 511 0080 3046     		mov	r0, r6
 512 0082 FFF7FEFF 		bl	newPiece
 513              	.LVL36:
 103:Core/Src/game.c ****     printNextPiece(nextPiece);
 514              		.loc 1 103 0
 515 0086 4046     		mov	r0, r8
 516 0088 FFF7FEFF 		bl	printNextPiece
 517              	.LVL37:
 104:Core/Src/game.c **** 
 105:Core/Src/game.c ****     gameOver = 0;
 518              		.loc 1 105 0
 519 008c 814B     		ldr	r3, .L55+28
 520 008e 1D60     		str	r5, [r3]
  87:Core/Src/game.c ****     
 521              		.loc 1 87 0
 522 0090 2C46     		mov	r4, r5
  86:Core/Src/game.c ****     int speedUpCounter = 0;             // counting to know when reduce the rythm
 523              		.loc 1 86 0
 524 0092 C827     		movs	r7, #200
  83:Core/Src/game.c ****     int nbDeletedLines = 0;
 525              		.loc 1 83 0
 526 0094 AA46     		mov	r10, r5
  81:Core/Src/game.c ****     /* for the game */
 527              		.loc 1 81 0
 528 0096 A946     		mov	r9, r5
 106:Core/Src/game.c ****     while(!gameOver){/* game loop */
 529              		.loc 1 106 0
 530 0098 91E0     		b	.L41
 531              	.LVL38:
 532              	.L53:
 107:Core/Src/game.c ****         //remove
 108:Core/Src/game.c ****         LL_TIM_DisableCounter(TIM4);
 109:Core/Src/game.c ****         LL_TIM_SetCounter(TIM4,0);
 110:Core/Src/game.c ****         LL_TIM_EnableCounter(TIM4);
 111:Core/Src/game.c **** 
 112:Core/Src/game.c ****         print(&board);   
 113:Core/Src/game.c ****     
 114:Core/Src/game.c ****         if (movingTimer >= rythm){/* when the game is moving down the tetromino */
 115:Core/Src/game.c ****         movingTimer = 0;
 533              		.loc 1 115 0
 534 009a 0022     		movs	r2, #0
 535 009c 7E4B     		ldr	r3, .L55+32
 536 009e 1A60     		str	r2, [r3]
 537              	.LBB13:
 116:Core/Src/game.c ****         
 117:Core/Src/game.c ****             if(!moveCurrentPieceDownBot(&board)){/* if the tetromino is down down */
 538              		.loc 1 117 0
 539 00a0 7A48     		ldr	r0, .L55+20
 540 00a2 FFF7FEFF 		bl	moveCurrentPieceDownBot
 541              	.LVL39:
 542 00a6 0028     		cmp	r0, #0
 543 00a8 40F09F80 		bne	.L42
 118:Core/Src/game.c ****                 gameOver = isGameOver(&board);
 544              		.loc 1 118 0
 545 00ac DFF8DCB1 		ldr	fp, .L55+20
ARM GAS  /tmp/ccdh1ORM.s 			page 37


 546 00b0 5846     		mov	r0, fp
 547 00b2 FFF7FEFF 		bl	isGameOver
 548              	.LVL40:
 549 00b6 774B     		ldr	r3, .L55+28
 550 00b8 1860     		str	r0, [r3]
 119:Core/Src/game.c **** 
 120:Core/Src/game.c ****                 /* Creating a new tetromino */
 121:Core/Src/game.c ****                 initPiece(&piece, nextPiece, 0);
 551              		.loc 1 121 0
 552 00ba 0022     		movs	r2, #0
 553 00bc 4146     		mov	r1, r8
 554 00be 7448     		ldr	r0, .L55+24
 555 00c0 FFF7FEFF 		bl	initPiece
 556              	.LVL41:
 122:Core/Src/game.c ****                 nextPiece = rand()%7;
 557              		.loc 1 122 0
 558 00c4 FFF7FEFF 		bl	rand
 559              	.LVL42:
 560 00c8 6E4B     		ldr	r3, .L55+12
 561 00ca 83FB0038 		smull	r3, r8, r3, r0
 562              	.LVL43:
 563 00ce 08EB0003 		add	r3, r8, r0
 564 00d2 4FEAE078 		asr	r8, r0, #31
 565 00d6 C8EBA308 		rsb	r8, r8, r3, asr #2
 566 00da C8EBC808 		rsb	r8, r8, r8, lsl #3
 567 00de A0EB0808 		sub	r8, r0, r8
 568              	.LVL44:
 123:Core/Src/game.c ****                 newPiece(&board, &piece);
 569              		.loc 1 123 0
 570 00e2 6B49     		ldr	r1, .L55+24
 571 00e4 5846     		mov	r0, fp
 572 00e6 FFF7FEFF 		bl	newPiece
 573              	.LVL45:
 124:Core/Src/game.c **** 
 125:Core/Src/game.c ****                 /* Deleting lines and displaying the move */
 126:Core/Src/game.c ****                 nbDeletedLines = deletePossibleLines(&board);
 574              		.loc 1 126 0
 575 00ea 5846     		mov	r0, fp
 576 00ec FFF7FEFF 		bl	deletePossibleLines
 577              	.LVL46:
 578 00f0 8346     		mov	fp, r0
 579              	.LVL47:
 127:Core/Src/game.c ****                 score += pow(nbDeletedLines, 2) * 100;
 580              		.loc 1 127 0
 581 00f2 FFF7FEFF 		bl	__aeabi_i2d
 582              	.LVL48:
 583 00f6 9FED601B 		vldr.64	d1, .L55
 584 00fa 41EC100B 		vmov	d0, r0, r1
 585 00fe FFF7FEFF 		bl	pow
 586              	.LVL49:
 587 0102 0022     		movs	r2, #0
 588 0104 654B     		ldr	r3, .L55+36
 589 0106 51EC100B 		vmov	r0, r1, d0
 590 010a FFF7FEFF 		bl	__aeabi_dmul
 591              	.LVL50:
 592 010e CDE90201 		strd	r0, [sp, #8]
 593 0112 5046     		mov	r0, r10
ARM GAS  /tmp/ccdh1ORM.s 			page 38


 594 0114 FFF7FEFF 		bl	__aeabi_i2d
 595              	.LVL51:
 596 0118 DDE90223 		ldrd	r2, [sp, #8]
 597 011c FFF7FEFF 		bl	__aeabi_dadd
 598              	.LVL52:
 599 0120 FFF7FEFF 		bl	__aeabi_d2iz
 600              	.LVL53:
 601 0124 8246     		mov	r10, r0
 602              	.LVL54:
 128:Core/Src/game.c ****                 if( nbDeletedLines > 0){
 603              		.loc 1 128 0
 604 0126 BBF1000F 		cmp	fp, #0
 605 012a 23DD     		ble	.L43
 606              	.LVL55:
 129:Core/Src/game.c ****                     startDisplay = 1;
 130:Core/Src/game.c ****                     if(nbDeletedLines == 4){
 607              		.loc 1 130 0
 608 012c BBF1040F 		cmp	fp, #4
 609 0130 27D0     		beq	.L51
 131:Core/Src/game.c ****                         DrawText("TETRIS!", 80, 150, YELLOW, 2, BLACK);  
 132:Core/Src/game.c ****                     }
 133:Core/Src/game.c ****                     else{
 134:Core/Src/game.c ****                         sprintf(charNbDeletedLines, "%d", nbDeletedLines);
 610              		.loc 1 134 0
 611 0132 5A46     		mov	r2, fp
 612 0134 5A49     		ldr	r1, .L55+40
 613 0136 05A8     		add	r0, sp, #20
 614              	.LVL56:
 615 0138 FFF7FEFF 		bl	sprintf
 616              	.LVL57:
 135:Core/Src/game.c ****                         DrawText(charNbDeletedLines, 80, 140, WHITE, 2, BLACK);
 617              		.loc 1 135 0
 618 013c 4FF0000B 		mov	fp, #0
 619              	.LVL58:
 620 0140 CDF804B0 		str	fp, [sp, #4]
 621 0144 4FF00209 		mov	r9, #2
 622 0148 CDF80090 		str	r9, [sp]
 623 014c 4FF6FF73 		movw	r3, #65535
 624 0150 8C22     		movs	r2, #140
 625 0152 5021     		movs	r1, #80
 626 0154 05A8     		add	r0, sp, #20
 627 0156 FFF7FEFF 		bl	DrawText
 628              	.LVL59:
 136:Core/Src/game.c ****                         DrawText("LINE!", 80, 160, WHITE, 2, BLACK);
 629              		.loc 1 136 0
 630 015a CDF804B0 		str	fp, [sp, #4]
 631 015e CDF80090 		str	r9, [sp]
 632 0162 4FF6FF73 		movw	r3, #65535
 633 0166 A022     		movs	r2, #160
 634 0168 5021     		movs	r1, #80
 635 016a 4E48     		ldr	r0, .L55+44
 636 016c FFF7FEFF 		bl	DrawText
 637              	.LVL60:
 129:Core/Src/game.c ****                     if(nbDeletedLines == 4){
 638              		.loc 1 129 0
 639 0170 4FF00109 		mov	r9, #1
 640              	.LVL61:
ARM GAS  /tmp/ccdh1ORM.s 			page 39


 641              	.L43:
 137:Core/Src/game.c ****                     }
 138:Core/Src/game.c ****                 }
 139:Core/Src/game.c ****                 
 140:Core/Src/game.c ****                 displayScore(score);
 642              		.loc 1 140 0
 643 0174 5046     		mov	r0, r10
 644 0176 FFF7FEFF 		bl	displayScore
 645              	.LVL62:
 141:Core/Src/game.c ****                 printNextPiece(nextPiece);
 646              		.loc 1 141 0
 647 017a 4046     		mov	r0, r8
 648 017c FFF7FEFF 		bl	printNextPiece
 649              	.LVL63:
 650 0180 33E0     		b	.L42
 651              	.LVL64:
 652              	.L51:
 131:Core/Src/game.c ****                     }
 653              		.loc 1 131 0
 654 0182 0023     		movs	r3, #0
 655 0184 0193     		str	r3, [sp, #4]
 656 0186 0223     		movs	r3, #2
 657 0188 0093     		str	r3, [sp]
 658 018a 4FF6E073 		movw	r3, #65504
 659 018e 9622     		movs	r2, #150
 660 0190 5021     		movs	r1, #80
 661 0192 4548     		ldr	r0, .L55+48
 662              	.LVL65:
 663 0194 FFF7FEFF 		bl	DrawText
 664              	.LVL66:
 129:Core/Src/game.c ****                     if(nbDeletedLines == 4){
 665              		.loc 1 129 0
 666 0198 4FF00109 		mov	r9, #1
 667 019c EAE7     		b	.L43
 668              	.LVL67:
 669              	.L54:
 670              	.LBE13:
 142:Core/Src/game.c ****             }
 143:Core/Src/game.c ****         }
 144:Core/Src/game.c **** 
 145:Core/Src/game.c ****         
 146:Core/Src/game.c **** 
 147:Core/Src/game.c ****         movingTimer++;
 148:Core/Src/game.c ****         speedUpCounter++;
 149:Core/Src/game.c **** 
 150:Core/Src/game.c ****         /* Displaying the move (when the player deleted a line) */
 151:Core/Src/game.c ****         if( startDisplay ){
 152:Core/Src/game.c ****             timeDisplay++;
 153:Core/Src/game.c ****         }
 154:Core/Src/game.c ****         if( timeDisplay >= 300 ){
 155:Core/Src/game.c ****             fillRect(70, 140, 20, 90, BLACK);
 671              		.loc 1 155 0
 672 019e 0023     		movs	r3, #0
 673 01a0 0093     		str	r3, [sp]
 674 01a2 5A23     		movs	r3, #90
 675 01a4 1422     		movs	r2, #20
 676 01a6 8C21     		movs	r1, #140
ARM GAS  /tmp/ccdh1ORM.s 			page 40


 677 01a8 4620     		movs	r0, #70
 678 01aa FFF7FEFF 		bl	fillRect
 679              	.LVL68:
 156:Core/Src/game.c ****             timeDisplay = 0;
 157:Core/Src/game.c ****             startDisplay = 0;
 680              		.loc 1 157 0
 681 01ae B146     		mov	r9, r6
 156:Core/Src/game.c ****             timeDisplay = 0;
 682              		.loc 1 156 0
 683 01b0 3546     		mov	r5, r6
 684 01b2 26E0     		b	.L46
 685              	.LVL69:
 686              	.L49:
 158:Core/Src/game.c ****         }
 159:Core/Src/game.c **** 
 160:Core/Src/game.c ****         /* Speeding up if it's time to */
 161:Core/Src/game.c ****         if(speedUpCounter >= SPEEDUP_RYTHM){
 162:Core/Src/game.c ****             speedUpCounter = 0;
 687              		.loc 1 162 0
 688 01b4 3446     		mov	r4, r6
 689              	.LVL70:
 690              	.L47:
 163:Core/Src/game.c ****             if(rythm > 50){
 164:Core/Src/game.c ****                 rythm -= 20;
 165:Core/Src/game.c ****             }
 166:Core/Src/game.c ****         }
 167:Core/Src/game.c **** 
 168:Core/Src/game.c ****         SystemCheckUp();  
 691              		.loc 1 168 0
 692 01b6 FFF7FEFF 		bl	SystemCheckUp
 693              	.LVL71:
 169:Core/Src/game.c ****         sync();
 694              		.loc 1 169 0
 695 01ba FFF7FEFF 		bl	sync
 696              	.LVL72:
 697              	.L41:
 106:Core/Src/game.c ****         //remove
 698              		.loc 1 106 0
 699 01be 354B     		ldr	r3, .L55+28
 700 01c0 1E68     		ldr	r6, [r3]
 701 01c2 3EBB     		cbnz	r6, .L52
 702              	.LVL73:
 703              	.LBB14:
 704              	.LBB15:
1138:Drivers/STM32F4xx_HAL_Driver/Inc/stm32f4xx_ll_tim.h **** }
 705              		.loc 2 1138 0
 706 01c4 2E4B     		ldr	r3, .L55+8
 707 01c6 1A68     		ldr	r2, [r3]
 708 01c8 22F00102 		bic	r2, r2, #1
 709 01cc 1A60     		str	r2, [r3]
 710              	.LVL74:
 711              	.LBE15:
 712              	.LBE14:
 713              	.LBB16:
 714              	.LBB17:
1380:Drivers/STM32F4xx_HAL_Driver/Inc/stm32f4xx_ll_tim.h **** }
 715              		.loc 2 1380 0
ARM GAS  /tmp/ccdh1ORM.s 			page 41


 716 01ce 0022     		movs	r2, #0
 717 01d0 5A62     		str	r2, [r3, #36]
 718              	.LVL75:
 719              	.LBE17:
 720              	.LBE16:
 721              	.LBB18:
 722              	.LBB19:
1127:Drivers/STM32F4xx_HAL_Driver/Inc/stm32f4xx_ll_tim.h **** }
 723              		.loc 2 1127 0
 724 01d2 1A68     		ldr	r2, [r3]
 725 01d4 42F00102 		orr	r2, r2, #1
 726 01d8 1A60     		str	r2, [r3]
 727              	.LVL76:
 728              	.LBE19:
 729              	.LBE18:
 112:Core/Src/game.c ****     
 730              		.loc 1 112 0
 731 01da 2C48     		ldr	r0, .L55+20
 732 01dc FFF7FEFF 		bl	print
 733              	.LVL77:
 114:Core/Src/game.c ****         movingTimer = 0;
 734              		.loc 1 114 0
 735 01e0 2D4B     		ldr	r3, .L55+32
 736 01e2 1B68     		ldr	r3, [r3]
 737 01e4 9F42     		cmp	r7, r3
 738 01e6 7FF758AF 		ble	.L53
 739              	.L42:
 147:Core/Src/game.c ****         speedUpCounter++;
 740              		.loc 1 147 0
 741 01ea 2B4A     		ldr	r2, .L55+32
 742 01ec 1368     		ldr	r3, [r2]
 743 01ee 0133     		adds	r3, r3, #1
 744 01f0 1360     		str	r3, [r2]
 148:Core/Src/game.c **** 
 745              		.loc 1 148 0
 746 01f2 0134     		adds	r4, r4, #1
 747              	.LVL78:
 151:Core/Src/game.c ****             timeDisplay++;
 748              		.loc 1 151 0
 749 01f4 B9F1000F 		cmp	r9, #0
 750 01f8 00D0     		beq	.L45
 152:Core/Src/game.c ****         }
 751              		.loc 1 152 0
 752 01fa 0135     		adds	r5, r5, #1
 753              	.LVL79:
 754              	.L45:
 154:Core/Src/game.c ****             fillRect(70, 140, 20, 90, BLACK);
 755              		.loc 1 154 0
 756 01fc B5F5967F 		cmp	r5, #300
 757 0200 CDDA     		bge	.L54
 758              	.LVL80:
 759              	.L46:
 161:Core/Src/game.c ****             speedUpCounter = 0;
 760              		.loc 1 161 0
 761 0202 40F6B733 		movw	r3, #2999
 762 0206 9C42     		cmp	r4, r3
 763 0208 D5DD     		ble	.L47
ARM GAS  /tmp/ccdh1ORM.s 			page 42


 764              	.LVL81:
 163:Core/Src/game.c ****                 rythm -= 20;
 765              		.loc 1 163 0
 766 020a 322F     		cmp	r7, #50
 767 020c D2DD     		ble	.L49
 164:Core/Src/game.c ****             }
 768              		.loc 1 164 0
 769 020e 143F     		subs	r7, r7, #20
 770              	.LVL82:
 162:Core/Src/game.c ****             if(rythm > 50){
 771              		.loc 1 162 0
 772 0210 3446     		mov	r4, r6
 773 0212 D0E7     		b	.L47
 774              	.LVL83:
 775              	.L52:
 170:Core/Src/game.c ****     }
 171:Core/Src/game.c **** 
 172:Core/Src/game.c ****     /* Displaying game over */
 173:Core/Src/game.c ****     fillScreen(BLACK);
 776              		.loc 1 173 0
 777 0214 0020     		movs	r0, #0
 778 0216 FFF7FEFF 		bl	fillScreen
 779              	.LVL84:
 174:Core/Src/game.c ****     DrawText("GAME OVER",170,50,RED,4,BLACK);
 780              		.loc 1 174 0
 781 021a 0024     		movs	r4, #0
 782              	.LVL85:
 783 021c 0194     		str	r4, [sp, #4]
 784 021e 0423     		movs	r3, #4
 785 0220 0093     		str	r3, [sp]
 786 0222 4FF47843 		mov	r3, #63488
 787 0226 3222     		movs	r2, #50
 788 0228 AA21     		movs	r1, #170
 789 022a 2048     		ldr	r0, .L55+52
 790 022c FFF7FEFF 		bl	DrawText
 791              	.LVL86:
 175:Core/Src/game.c ****     DrawText("YOUR SCORE : ",70,50,WHITE,2,BLACK);
 792              		.loc 1 175 0
 793 0230 0194     		str	r4, [sp, #4]
 794 0232 0225     		movs	r5, #2
 795              	.LVL87:
 796 0234 0095     		str	r5, [sp]
 797 0236 4FF6FF73 		movw	r3, #65535
 798 023a 3222     		movs	r2, #50
 799 023c 4621     		movs	r1, #70
 800 023e 1C48     		ldr	r0, .L55+56
 801 0240 FFF7FEFF 		bl	DrawText
 802              	.LVL88:
 176:Core/Src/game.c ****     sprintf(charScore,"%d",score);
 803              		.loc 1 176 0
 804 0244 5246     		mov	r2, r10
 805 0246 1649     		ldr	r1, .L55+40
 806 0248 06A8     		add	r0, sp, #24
 807 024a FFF7FEFF 		bl	sprintf
 808              	.LVL89:
 177:Core/Src/game.c ****     DrawText(charScore,50,50,WHITE,2,BLACK);
 809              		.loc 1 177 0
ARM GAS  /tmp/ccdh1ORM.s 			page 43


 810 024e 0194     		str	r4, [sp, #4]
 811 0250 0095     		str	r5, [sp]
 812 0252 4FF6FF73 		movw	r3, #65535
 813 0256 3222     		movs	r2, #50
 814 0258 1146     		mov	r1, r2
 815 025a 06A8     		add	r0, sp, #24
 816 025c FFF7FEFF 		bl	DrawText
 817              	.LVL90:
 178:Core/Src/game.c **** 
 179:Core/Src/game.c ****     start = 0;
 818              		.loc 1 179 0
 819 0260 144B     		ldr	r3, .L55+60
 820 0262 1C60     		str	r4, [r3]
 180:Core/Src/game.c ****     gameOver = 1;
 821              		.loc 1 180 0
 822 0264 0122     		movs	r2, #1
 823 0266 0B4B     		ldr	r3, .L55+28
 824 0268 1A60     		str	r2, [r3]
 181:Core/Src/game.c **** 
 182:Core/Src/game.c ****     setButtonsOutGame();   
 825              		.loc 1 182 0
 826 026a FFF7FEFF 		bl	setButtonsOutGame
 827              	.LVL91:
 183:Core/Src/game.c **** 
 184:Core/Src/game.c ****     return score;
 185:Core/Src/game.c **** }
 828              		.loc 1 185 0
 829 026e 5046     		mov	r0, r10
 830 0270 09B0     		add	sp, sp, #36
 831              	.LCFI13:
 832              		.cfi_def_cfa_offset 36
 833              		@ sp needed
 834 0272 BDE8F08F 		pop	{r4, r5, r6, r7, r8, r9, r10, fp, pc}
 835              	.LVL92:
 836              	.L56:
 837 0276 00BF     		.align	3
 838              	.L55:
 839 0278 00000000 		.word	0
 840 027c 00000040 		.word	1073741824
 841 0280 00080040 		.word	1073743872
 842 0284 93244992 		.word	-1840700269
 843 0288 00000000 		.word	.LC1
 844 028c 00000000 		.word	board
 845 0290 00000000 		.word	piece
 846 0294 00000000 		.word	.LANCHOR2
 847 0298 00000000 		.word	.LANCHOR1
 848 029c 00005940 		.word	1079574528
 849 02a0 00000000 		.word	.LC0
 850 02a4 10000000 		.word	.LC3
 851 02a8 08000000 		.word	.LC2
 852 02ac 18000000 		.word	.LC4
 853 02b0 24000000 		.word	.LC5
 854 02b4 00000000 		.word	.LANCHOR0
 855              		.cfi_endproc
 856              	.LFE745:
 858              		.section	.text.main,"ax",%progbits
 859              		.align	1
ARM GAS  /tmp/ccdh1ORM.s 			page 44


 860              		.global	main
 861              		.syntax unified
 862              		.thumb
 863              		.thumb_func
 864              		.fpu fpv4-sp-d16
 866              	main:
 867              	.LFB746:
 186:Core/Src/game.c **** 
 187:Core/Src/game.c **** 
 188:Core/Src/game.c **** int main(void){
 868              		.loc 1 188 0
 869              		.cfi_startproc
 870              		@ args = 0, pretend = 0, frame = 8
 871              		@ frame_needed = 0, uses_anonymous_args = 0
 872 0000 30B5     		push	{r4, r5, lr}
 873              	.LCFI14:
 874              		.cfi_def_cfa_offset 12
 875              		.cfi_offset 4, -12
 876              		.cfi_offset 5, -8
 877              		.cfi_offset 14, -4
 878 0002 85B0     		sub	sp, sp, #20
 879              	.LCFI15:
 880              		.cfi_def_cfa_offset 32
 189:Core/Src/game.c ****     
 190:Core/Src/game.c ****     /* Set up */
 191:Core/Src/game.c ****     initSystem();
 881              		.loc 1 191 0
 882 0004 FFF7FEFF 		bl	initSystem
 883              	.LVL93:
 192:Core/Src/game.c ****     setSync(SYNC_TIME);
 884              		.loc 1 192 0
 885 0008 41F28830 		movw	r0, #5000
 886 000c FFF7FEFF 		bl	setSync
 887              	.LVL94:
 193:Core/Src/game.c ****     setButtonsOutGame();
 888              		.loc 1 193 0
 889 0010 FFF7FEFF 		bl	setButtonsOutGame
 890              	.LVL95:
 194:Core/Src/game.c ****     SetRotation(1);
 891              		.loc 1 194 0
 892 0014 0120     		movs	r0, #1
 893 0016 FFF7FEFF 		bl	SetRotation
 894              	.LVL96:
 195:Core/Src/game.c ****     /* VARIABLES */
 196:Core/Src/game.c ****     int score = 0;
 197:Core/Src/game.c ****     char charScore[6];
 198:Core/Src/game.c **** 
 199:Core/Src/game.c ****     fillScreen(BLACK);
 895              		.loc 1 199 0
 896 001a 0020     		movs	r0, #0
 897 001c FFF7FEFF 		bl	fillScreen
 898              	.LVL97:
 899 0020 30E0     		b	.L62
 900              	.LVL98:
 901              	.L58:
 200:Core/Src/game.c **** 
 201:Core/Src/game.c ****     while(1){/* main loop */
ARM GAS  /tmp/ccdh1ORM.s 			page 45


 202:Core/Src/game.c ****         if(gameOver == 0){/* if it's the first game */
 203:Core/Src/game.c ****             DrawText("Press start to play!",140,20,WHITE,2,BLACK);
 204:Core/Src/game.c ****         }
 205:Core/Src/game.c ****         else{/* if it's a replay */
 206:Core/Src/game.c ****             DrawText("Press start to replay",120,10,WHITE,2,BLACK);
 902              		.loc 1 206 0
 903 0022 0023     		movs	r3, #0
 904 0024 0193     		str	r3, [sp, #4]
 905 0026 0223     		movs	r3, #2
 906 0028 0093     		str	r3, [sp]
 907 002a 4FF6FF73 		movw	r3, #65535
 908 002e 0A22     		movs	r2, #10
 909 0030 7821     		movs	r1, #120
 910 0032 1C48     		ldr	r0, .L64
 911 0034 FFF7FEFF 		bl	DrawText
 912              	.LVL99:
 913 0038 01E0     		b	.L59
 914              	.L61:
 207:Core/Src/game.c ****         }
 208:Core/Src/game.c **** 
 209:Core/Src/game.c ****         /* Waiting for the player to press START */
 210:Core/Src/game.c ****         while(!start){
 211:Core/Src/game.c ****             SystemCheckUp();
 915              		.loc 1 211 0
 916 003a FFF7FEFF 		bl	SystemCheckUp
 917              	.LVL100:
 918              	.L59:
 210:Core/Src/game.c ****             SystemCheckUp();
 919              		.loc 1 210 0
 920 003e 1A4B     		ldr	r3, .L64+4
 921 0040 1B68     		ldr	r3, [r3]
 922 0042 002B     		cmp	r3, #0
 923 0044 F9D0     		beq	.L61
 212:Core/Src/game.c ****         }
 213:Core/Src/game.c **** 
 214:Core/Src/game.c ****         /* Running 1 game */
 215:Core/Src/game.c ****         score = game();
 924              		.loc 1 215 0
 925 0046 FFF7FEFF 		bl	game
 926              	.LVL101:
 216:Core/Src/game.c **** 
 217:Core/Src/game.c ****         /* Saving and displaying the best score */
 218:Core/Src/game.c ****         updateHighScore(score);
 927              		.loc 1 218 0
 928 004a FFF7FEFF 		bl	updateHighScore
 929              	.LVL102:
 219:Core/Src/game.c ****         sprintf(charScore, "%d", getHighScore());
 930              		.loc 1 219 0
 931 004e FFF7FEFF 		bl	getHighScore
 932              	.LVL103:
 933 0052 0246     		mov	r2, r0
 934 0054 1549     		ldr	r1, .L64+8
 935 0056 02A8     		add	r0, sp, #8
 936 0058 FFF7FEFF 		bl	sprintf
 937              	.LVL104:
 220:Core/Src/game.c ****         DrawText("BEST SCORE : ", 30, 50, WHITE, 2, BLACK);
 938              		.loc 1 220 0
ARM GAS  /tmp/ccdh1ORM.s 			page 46


 939 005c 0025     		movs	r5, #0
 940 005e 0195     		str	r5, [sp, #4]
 941 0060 0224     		movs	r4, #2
 942 0062 0094     		str	r4, [sp]
 943 0064 4FF6FF73 		movw	r3, #65535
 944 0068 3222     		movs	r2, #50
 945 006a 1E21     		movs	r1, #30
 946 006c 1048     		ldr	r0, .L64+12
 947 006e FFF7FEFF 		bl	DrawText
 948              	.LVL105:
 221:Core/Src/game.c ****         DrawText(charScore, 10, 50, WHITE, 2, BLACK);   
 949              		.loc 1 221 0
 950 0072 0195     		str	r5, [sp, #4]
 951 0074 0094     		str	r4, [sp]
 952 0076 4FF6FF73 		movw	r3, #65535
 953 007a 3222     		movs	r2, #50
 954 007c 0A21     		movs	r1, #10
 955 007e 02A8     		add	r0, sp, #8
 956 0080 FFF7FEFF 		bl	DrawText
 957              	.LVL106:
 958              	.L62:
 202:Core/Src/game.c ****             DrawText("Press start to play!",140,20,WHITE,2,BLACK);
 959              		.loc 1 202 0
 960 0084 0B4B     		ldr	r3, .L64+16
 961 0086 1B68     		ldr	r3, [r3]
 962 0088 002B     		cmp	r3, #0
 963 008a CAD1     		bne	.L58
 203:Core/Src/game.c ****         }
 964              		.loc 1 203 0
 965 008c 0193     		str	r3, [sp, #4]
 966 008e 0223     		movs	r3, #2
 967 0090 0093     		str	r3, [sp]
 968 0092 4FF6FF73 		movw	r3, #65535
 969 0096 1422     		movs	r2, #20
 970 0098 8C21     		movs	r1, #140
 971 009a 0748     		ldr	r0, .L64+20
 972 009c FFF7FEFF 		bl	DrawText
 973              	.LVL107:
 974 00a0 CDE7     		b	.L59
 975              	.L65:
 976 00a2 00BF     		.align	2
 977              	.L64:
 978 00a4 18000000 		.word	.LC7
 979 00a8 00000000 		.word	.LANCHOR0
 980 00ac 00000000 		.word	.LC0
 981 00b0 30000000 		.word	.LC8
 982 00b4 00000000 		.word	.LANCHOR2
 983 00b8 00000000 		.word	.LC6
 984              		.cfi_endproc
 985              	.LFE746:
 987              		.global	gameOver
 988              		.global	start
 989              		.global	movingTimer
 990              		.comm	piece,20,4
 991              		.comm	board,804,4
 992              		.section	.bss.gameOver,"aw",%nobits
 993              		.align	2
ARM GAS  /tmp/ccdh1ORM.s 			page 47


 994              		.set	.LANCHOR2,. + 0
 997              	gameOver:
 998 0000 00000000 		.space	4
 999              		.section	.bss.movingTimer,"aw",%nobits
 1000              		.align	2
 1001              		.set	.LANCHOR1,. + 0
 1004              	movingTimer:
 1005 0000 00000000 		.space	4
 1006              		.section	.bss.start,"aw",%nobits
 1007              		.align	2
 1008              		.set	.LANCHOR0,. + 0
 1011              	start:
 1012 0000 00000000 		.space	4
 1013              		.section	.rodata.displayScore.str1.4,"aMS",%progbits,1
 1014              		.align	2
 1015              	.LC0:
 1016 0000 256400   		.ascii	"%d\000"
 1017              		.section	.rodata.game.str1.4,"aMS",%progbits,1
 1018              		.align	2
 1019              	.LC1:
 1020 0000 53636F72 		.ascii	"Score: \000"
 1020      653A2000 
 1021              	.LC2:
 1022 0008 54455452 		.ascii	"TETRIS!\000"
 1022      49532100 
 1023              	.LC3:
 1024 0010 4C494E45 		.ascii	"LINE!\000"
 1024      2100
 1025 0016 0000     		.space	2
 1026              	.LC4:
 1027 0018 47414D45 		.ascii	"GAME OVER\000"
 1027      204F5645 
 1027      5200
 1028 0022 0000     		.space	2
 1029              	.LC5:
 1030 0024 594F5552 		.ascii	"YOUR SCORE : \000"
 1030      2053434F 
 1030      5245203A 
 1030      2000
 1031              		.section	.rodata.main.str1.4,"aMS",%progbits,1
 1032              		.align	2
 1033              	.LC6:
 1034 0000 50726573 		.ascii	"Press start to play!\000"
 1034      73207374 
 1034      61727420 
 1034      746F2070 
 1034      6C617921 
 1035 0015 000000   		.space	3
 1036              	.LC7:
 1037 0018 50726573 		.ascii	"Press start to replay\000"
 1037      73207374 
 1037      61727420 
 1037      746F2072 
 1037      65706C61 
 1038 002e 0000     		.space	2
 1039              	.LC8:
 1040 0030 42455354 		.ascii	"BEST SCORE : \000"
ARM GAS  /tmp/ccdh1ORM.s 			page 48


 1040      2053434F 
 1040      5245203A 
 1040      2000
 1041              		.text
 1042              	.Letext0:
 1043              		.file 3 "/usr/include/newlib/machine/_default_types.h"
 1044              		.file 4 "/usr/include/newlib/sys/_stdint.h"
 1045              		.file 5 "Drivers/CMSIS/Include/core_cm4.h"
 1046              		.file 6 "Drivers/CMSIS/Device/ST/STM32F4xx/Include/system_stm32f4xx.h"
 1047              		.file 7 "Drivers/CMSIS/Device/ST/STM32F4xx/Include/stm32f411xe.h"
 1048              		.file 8 "Drivers/STM32F4xx_HAL_Driver/Inc/stm32f4xx_hal.h"
 1049              		.file 9 "Drivers/STM32F4xx_HAL_Driver/Inc/stm32f4xx_ll_dma.h"
 1050              		.file 10 "Core/Inc/../Inc/../Inc/5x5_font.h"
 1051              		.file 11 "Core/Inc/../Inc/ILI9341_Driver.h"
 1052              		.file 12 "Core/Inc/../Inc/shapes.h"
 1053              		.file 13 "/usr/include/newlib/sys/lock.h"
 1054              		.file 14 "/usr/include/newlib/sys/_types.h"
 1055              		.file 15 "/usr/lib/gcc/arm-none-eabi/6.3.1/include/stddef.h"
 1056              		.file 16 "/usr/include/newlib/sys/reent.h"
 1057              		.file 17 "/usr/include/newlib/stdlib.h"
 1058              		.file 18 "Core/Inc/../Inc/piece.h"
 1059              		.file 19 "Core/Inc/../Inc/board.h"
 1060              		.file 20 "/usr/include/newlib/time.h"
 1061              		.file 21 "/usr/include/newlib/math.h"
 1062              		.file 22 "Core/Inc/main.h"
 1063              		.file 23 "/usr/include/newlib/stdio.h"
ARM GAS  /tmp/ccdh1ORM.s 			page 49


DEFINED SYMBOLS
                            *ABS*:0000000000000000 game.c
     /tmp/ccdh1ORM.s:18     .text.START:0000000000000000 $t
     /tmp/ccdh1ORM.s:25     .text.START:0000000000000000 START
     /tmp/ccdh1ORM.s:43     .text.START:0000000000000010 $d
     /tmp/ccdh1ORM.s:48     .text.UP:0000000000000000 $t
     /tmp/ccdh1ORM.s:55     .text.UP:0000000000000000 UP
     /tmp/ccdh1ORM.s:74     .text.UP:000000000000000c $d
                            *COM*:0000000000000324 board
     /tmp/ccdh1ORM.s:79     .text.DOWN:0000000000000000 $t
     /tmp/ccdh1ORM.s:86     .text.DOWN:0000000000000000 DOWN
     /tmp/ccdh1ORM.s:109    .text.DOWN:0000000000000010 $d
     /tmp/ccdh1ORM.s:115    .text.RIGHT:0000000000000000 $t
     /tmp/ccdh1ORM.s:122    .text.RIGHT:0000000000000000 RIGHT
     /tmp/ccdh1ORM.s:141    .text.RIGHT:000000000000000c $d
     /tmp/ccdh1ORM.s:146    .text.LEFT:0000000000000000 $t
     /tmp/ccdh1ORM.s:153    .text.LEFT:0000000000000000 LEFT
     /tmp/ccdh1ORM.s:172    .text.LEFT:000000000000000c $d
     /tmp/ccdh1ORM.s:177    .text.A:0000000000000000 $t
     /tmp/ccdh1ORM.s:184    .text.A:0000000000000000 A
     /tmp/ccdh1ORM.s:203    .text.A:000000000000000c $d
     /tmp/ccdh1ORM.s:208    .text.B:0000000000000000 $t
     /tmp/ccdh1ORM.s:215    .text.B:0000000000000000 B
     /tmp/ccdh1ORM.s:234    .text.B:000000000000000c $d
     /tmp/ccdh1ORM.s:239    .text.displayScore:0000000000000000 $t
     /tmp/ccdh1ORM.s:246    .text.displayScore:0000000000000000 displayScore
     /tmp/ccdh1ORM.s:287    .text.displayScore:000000000000002c $d
     /tmp/ccdh1ORM.s:292    .text.setButtonsInGame:0000000000000000 $t
     /tmp/ccdh1ORM.s:299    .text.setButtonsInGame:0000000000000000 setButtonsInGame
     /tmp/ccdh1ORM.s:342    .text.setButtonsInGame:0000000000000030 $d
     /tmp/ccdh1ORM.s:353    .text.setButtonsOutGame:0000000000000000 $t
     /tmp/ccdh1ORM.s:360    .text.setButtonsOutGame:0000000000000000 setButtonsOutGame
     /tmp/ccdh1ORM.s:404    .text.setButtonsOutGame:0000000000000030 $d
     /tmp/ccdh1ORM.s:414    .text.game:0000000000000000 $t
     /tmp/ccdh1ORM.s:421    .text.game:0000000000000000 game
     /tmp/ccdh1ORM.s:839    .text.game:0000000000000278 $d
                            *COM*:0000000000000014 piece
     /tmp/ccdh1ORM.s:859    .text.main:0000000000000000 $t
     /tmp/ccdh1ORM.s:866    .text.main:0000000000000000 main
     /tmp/ccdh1ORM.s:978    .text.main:00000000000000a4 $d
     /tmp/ccdh1ORM.s:997    .bss.gameOver:0000000000000000 gameOver
     /tmp/ccdh1ORM.s:1011   .bss.start:0000000000000000 start
     /tmp/ccdh1ORM.s:1004   .bss.movingTimer:0000000000000000 movingTimer
     /tmp/ccdh1ORM.s:993    .bss.gameOver:0000000000000000 $d
     /tmp/ccdh1ORM.s:1000   .bss.movingTimer:0000000000000000 $d
     /tmp/ccdh1ORM.s:1007   .bss.start:0000000000000000 $d
     /tmp/ccdh1ORM.s:1014   .rodata.displayScore.str1.4:0000000000000000 $d
     /tmp/ccdh1ORM.s:1018   .rodata.game.str1.4:0000000000000000 $d
     /tmp/ccdh1ORM.s:1032   .rodata.main.str1.4:0000000000000000 $d
                     .debug_frame:0000000000000010 $d

UNDEFINED SYMBOLS
dropCurrentPiece
moveCurrentPieceDown
moveCurrentPieceRight
moveCurrentPieceLeft
rotateCurrentPieceRight
ARM GAS  /tmp/ccdh1ORM.s 			page 50


rotateCurrentPieceLeft
sprintf
DrawText
setAfunction
setBfunction
setUPfunction
setDOWNfunction
setRIGHTfunction
setLEFTfunction
setSTARTfunction
emptyFunc
__aeabi_i2d
__aeabi_dmul
__aeabi_dadd
__aeabi_d2iz
srand
rand
fillScreen
printBorders
initBoard
initPiece
newPiece
printNextPiece
moveCurrentPieceDownBot
isGameOver
deletePossibleLines
pow
fillRect
SystemCheckUp
sync
print
initSystem
setSync
SetRotation
updateHighScore
getHighScore
