ARM GAS  /tmp/ccVXMK4K.s 			page 1


   1              		.cpu cortex-m4
   2              		.eabi_attribute 27, 1
   3              		.eabi_attribute 28, 1
   4              		.eabi_attribute 20, 1
   5              		.eabi_attribute 21, 1
   6              		.eabi_attribute 23, 3
   7              		.eabi_attribute 24, 1
   8              		.eabi_attribute 25, 1
   9              		.eabi_attribute 26, 1
  10              		.eabi_attribute 30, 1
  11              		.eabi_attribute 34, 1
  12              		.eabi_attribute 18, 4
  13              		.file	"piece.c"
  14              		.text
  15              	.Ltext0:
  16              		.cfi_sections	.debug_frame
  17              		.section	.text.initPiece,"ax",%progbits
  18              		.align	1
  19              		.global	initPiece
  20              		.syntax unified
  21              		.thumb
  22              		.thumb_func
  23              		.fpu fpv4-sp-d16
  25              	initPiece:
  26              	.LFB1:
  27              		.file 1 "Core/Src/piece.c"
   1:Core/Src/piece.c **** /* piece.cpp */
   2:Core/Src/piece.c **** #include "../Inc/piece.h"
   3:Core/Src/piece.c ****  
   4:Core/Src/piece.c **** 
   5:Core/Src/piece.c ****  
   6:Core/Src/piece.c **** void initPiece(Piece * piece, int k, int o)
   7:Core/Src/piece.c **** {
  28              		.loc 1 7 0
  29              		.cfi_startproc
  30              		@ args = 0, pretend = 0, frame = 0
  31              		@ frame_needed = 0, uses_anonymous_args = 0
  32              		@ link register save eliminated.
  33              	.LVL0:
   8:Core/Src/piece.c ****     //piece = malloc(sizeof(Piece));
   9:Core/Src/piece.c ****     piece->kind = k;
  34              		.loc 1 9 0
  35 0000 0160     		str	r1, [r0]
  10:Core/Src/piece.c ****     piece->orientation = o;
  36              		.loc 1 10 0
  37 0002 4260     		str	r2, [r0, #4]
  38 0004 7047     		bx	lr
  39              		.cfi_endproc
  40              	.LFE1:
  42              		.section	.text.setKind,"ax",%progbits
  43              		.align	1
  44              		.global	setKind
  45              		.syntax unified
  46              		.thumb
  47              		.thumb_func
  48              		.fpu fpv4-sp-d16
  50              	setKind:
ARM GAS  /tmp/ccVXMK4K.s 			page 2


  51              	.LFB2:
  11:Core/Src/piece.c **** }
  12:Core/Src/piece.c ****  
  13:Core/Src/piece.c **** 
  14:Core/Src/piece.c ****  
  15:Core/Src/piece.c **** void setKind(Piece * piece, int k)
  16:Core/Src/piece.c **** {
  52              		.loc 1 16 0
  53              		.cfi_startproc
  54              		@ args = 0, pretend = 0, frame = 0
  55              		@ frame_needed = 0, uses_anonymous_args = 0
  56              		@ link register save eliminated.
  57              	.LVL1:
  17:Core/Src/piece.c ****     piece->kind = k;
  58              		.loc 1 17 0
  59 0000 0160     		str	r1, [r0]
  60 0002 7047     		bx	lr
  61              		.cfi_endproc
  62              	.LFE2:
  64              		.section	.text.setOrientation,"ax",%progbits
  65              		.align	1
  66              		.global	setOrientation
  67              		.syntax unified
  68              		.thumb
  69              		.thumb_func
  70              		.fpu fpv4-sp-d16
  72              	setOrientation:
  73              	.LFB3:
  18:Core/Src/piece.c **** }
  19:Core/Src/piece.c ****  
  20:Core/Src/piece.c **** void setOrientation(Piece * piece, int o)
  21:Core/Src/piece.c **** {
  74              		.loc 1 21 0
  75              		.cfi_startproc
  76              		@ args = 0, pretend = 0, frame = 0
  77              		@ frame_needed = 0, uses_anonymous_args = 0
  78              		@ link register save eliminated.
  79              	.LVL2:
  22:Core/Src/piece.c ****     piece->orientation = o;
  80              		.loc 1 22 0
  81 0000 4160     		str	r1, [r0, #4]
  82 0002 7047     		bx	lr
  83              		.cfi_endproc
  84              	.LFE3:
  86              		.section	.text.getKind,"ax",%progbits
  87              		.align	1
  88              		.global	getKind
  89              		.syntax unified
  90              		.thumb
  91              		.thumb_func
  92              		.fpu fpv4-sp-d16
  94              	getKind:
  95              	.LFB4:
  23:Core/Src/piece.c **** }
  24:Core/Src/piece.c ****  
  25:Core/Src/piece.c **** int getKind(Piece * piece)
  26:Core/Src/piece.c **** {
ARM GAS  /tmp/ccVXMK4K.s 			page 3


  96              		.loc 1 26 0
  97              		.cfi_startproc
  98              		@ args = 0, pretend = 0, frame = 0
  99              		@ frame_needed = 0, uses_anonymous_args = 0
 100              		@ link register save eliminated.
 101              	.LVL3:
  27:Core/Src/piece.c ****     return piece->kind;
  28:Core/Src/piece.c **** }
 102              		.loc 1 28 0
 103 0000 0068     		ldr	r0, [r0]
 104              	.LVL4:
 105 0002 7047     		bx	lr
 106              		.cfi_endproc
 107              	.LFE4:
 109              		.section	.text.getOrientation,"ax",%progbits
 110              		.align	1
 111              		.global	getOrientation
 112              		.syntax unified
 113              		.thumb
 114              		.thumb_func
 115              		.fpu fpv4-sp-d16
 117              	getOrientation:
 118              	.LFB5:
  29:Core/Src/piece.c ****  
  30:Core/Src/piece.c **** int getOrientation(Piece * piece)
  31:Core/Src/piece.c **** {
 119              		.loc 1 31 0
 120              		.cfi_startproc
 121              		@ args = 0, pretend = 0, frame = 0
 122              		@ frame_needed = 0, uses_anonymous_args = 0
 123              		@ link register save eliminated.
 124              	.LVL5:
  32:Core/Src/piece.c ****     return piece->orientation;
  33:Core/Src/piece.c **** }
 125              		.loc 1 33 0
 126 0000 4068     		ldr	r0, [r0, #4]
 127              	.LVL6:
 128 0002 7047     		bx	lr
 129              		.cfi_endproc
 130              	.LFE5:
 132              		.section	.text.setColor,"ax",%progbits
 133              		.align	1
 134              		.global	setColor
 135              		.syntax unified
 136              		.thumb
 137              		.thumb_func
 138              		.fpu fpv4-sp-d16
 140              	setColor:
 141              	.LFB6:
  34:Core/Src/piece.c ****  
  35:Core/Src/piece.c **** void setColor(Piece * piece, int c)
  36:Core/Src/piece.c **** {
 142              		.loc 1 36 0
 143              		.cfi_startproc
 144              		@ args = 0, pretend = 0, frame = 0
 145              		@ frame_needed = 0, uses_anonymous_args = 0
 146              		@ link register save eliminated.
ARM GAS  /tmp/ccVXMK4K.s 			page 4


 147              	.LVL7:
  37:Core/Src/piece.c ****     piece->color = c;
 148              		.loc 1 37 0
 149 0000 8160     		str	r1, [r0, #8]
 150 0002 7047     		bx	lr
 151              		.cfi_endproc
 152              	.LFE6:
 154              		.section	.text.getColor,"ax",%progbits
 155              		.align	1
 156              		.global	getColor
 157              		.syntax unified
 158              		.thumb
 159              		.thumb_func
 160              		.fpu fpv4-sp-d16
 162              	getColor:
 163              	.LFB7:
  38:Core/Src/piece.c **** }
  39:Core/Src/piece.c ****  
  40:Core/Src/piece.c **** int getColor(Piece * piece)
  41:Core/Src/piece.c **** {
 164              		.loc 1 41 0
 165              		.cfi_startproc
 166              		@ args = 0, pretend = 0, frame = 0
 167              		@ frame_needed = 0, uses_anonymous_args = 0
 168              		@ link register save eliminated.
 169              	.LVL8:
  42:Core/Src/piece.c ****     return piece->color;
  43:Core/Src/piece.c **** }
 170              		.loc 1 43 0
 171 0000 8068     		ldr	r0, [r0, #8]
 172              	.LVL9:
 173 0002 7047     		bx	lr
 174              		.cfi_endproc
 175              	.LFE7:
 177              		.section	.text.setPosX,"ax",%progbits
 178              		.align	1
 179              		.global	setPosX
 180              		.syntax unified
 181              		.thumb
 182              		.thumb_func
 183              		.fpu fpv4-sp-d16
 185              	setPosX:
 186              	.LFB8:
  44:Core/Src/piece.c ****  
  45:Core/Src/piece.c **** void setPosX(Piece * piece, int x)
  46:Core/Src/piece.c **** {
 187              		.loc 1 46 0
 188              		.cfi_startproc
 189              		@ args = 0, pretend = 0, frame = 0
 190              		@ frame_needed = 0, uses_anonymous_args = 0
 191              		@ link register save eliminated.
 192              	.LVL10:
  47:Core/Src/piece.c ****     piece->posX = x;
 193              		.loc 1 47 0
 194 0000 C160     		str	r1, [r0, #12]
 195 0002 7047     		bx	lr
 196              		.cfi_endproc
ARM GAS  /tmp/ccVXMK4K.s 			page 5


 197              	.LFE8:
 199              		.section	.text.getPosX,"ax",%progbits
 200              		.align	1
 201              		.global	getPosX
 202              		.syntax unified
 203              		.thumb
 204              		.thumb_func
 205              		.fpu fpv4-sp-d16
 207              	getPosX:
 208              	.LFB9:
  48:Core/Src/piece.c **** }
  49:Core/Src/piece.c ****  
  50:Core/Src/piece.c **** int getPosX(Piece * piece)
  51:Core/Src/piece.c **** {
 209              		.loc 1 51 0
 210              		.cfi_startproc
 211              		@ args = 0, pretend = 0, frame = 0
 212              		@ frame_needed = 0, uses_anonymous_args = 0
 213              		@ link register save eliminated.
 214              	.LVL11:
  52:Core/Src/piece.c ****     return piece->posX;
  53:Core/Src/piece.c **** }
 215              		.loc 1 53 0
 216 0000 C068     		ldr	r0, [r0, #12]
 217              	.LVL12:
 218 0002 7047     		bx	lr
 219              		.cfi_endproc
 220              	.LFE9:
 222              		.section	.text.setPosY,"ax",%progbits
 223              		.align	1
 224              		.global	setPosY
 225              		.syntax unified
 226              		.thumb
 227              		.thumb_func
 228              		.fpu fpv4-sp-d16
 230              	setPosY:
 231              	.LFB10:
  54:Core/Src/piece.c ****  
  55:Core/Src/piece.c **** void setPosY(Piece * piece, int y)
  56:Core/Src/piece.c **** {
 232              		.loc 1 56 0
 233              		.cfi_startproc
 234              		@ args = 0, pretend = 0, frame = 0
 235              		@ frame_needed = 0, uses_anonymous_args = 0
 236              		@ link register save eliminated.
 237              	.LVL13:
  57:Core/Src/piece.c ****     piece->posY = y;
 238              		.loc 1 57 0
 239 0000 0161     		str	r1, [r0, #16]
 240 0002 7047     		bx	lr
 241              		.cfi_endproc
 242              	.LFE10:
 244              		.section	.text.getPosY,"ax",%progbits
 245              		.align	1
 246              		.global	getPosY
 247              		.syntax unified
 248              		.thumb
ARM GAS  /tmp/ccVXMK4K.s 			page 6


 249              		.thumb_func
 250              		.fpu fpv4-sp-d16
 252              	getPosY:
 253              	.LFB11:
  58:Core/Src/piece.c **** }
  59:Core/Src/piece.c ****  
  60:Core/Src/piece.c **** int getPosY(Piece * piece)
  61:Core/Src/piece.c **** {
 254              		.loc 1 61 0
 255              		.cfi_startproc
 256              		@ args = 0, pretend = 0, frame = 0
 257              		@ frame_needed = 0, uses_anonymous_args = 0
 258              		@ link register save eliminated.
 259              	.LVL14:
  62:Core/Src/piece.c ****     return piece->posY;
  63:Core/Src/piece.c **** }...
 260              		.loc 1 63 0
 261 0000 0069     		ldr	r0, [r0, #16]
 262              	.LVL15:
 263 0002 7047     		bx	lr
 264              		.cfi_endproc
 265              	.LFE11:
 267              		.text
 268              	.Letext0:
 269              		.file 2 "/usr/include/newlib/sys/lock.h"
 270              		.file 3 "/usr/include/newlib/sys/_types.h"
 271              		.file 4 "/usr/lib/gcc/arm-none-eabi/6.3.1/include/stddef.h"
 272              		.file 5 "/usr/include/newlib/sys/reent.h"
 273              		.file 6 "/usr/include/newlib/stdlib.h"
 274              		.file 7 "Core/Src/../Inc/piece.h"
 275              		.file 8 "Core/Src/../Inc/shapes.h"
ARM GAS  /tmp/ccVXMK4K.s 			page 7

